
niedziela1.elf:     file format elf32-avr

Sections:
Idx Name          Size      VMA       LMA       File off  Algn
  0 .data         0000013e  00800100  000029ea  00002a7e  2**0
                  CONTENTS, ALLOC, LOAD, DATA
  1 .text         000029ea  00000000  00000000  00000094  2**1
                  CONTENTS, ALLOC, LOAD, READONLY, CODE
  2 .bss          00000046  0080023e  0080023e  00002bbc  2**0
                  ALLOC
  3 .stab         0000138c  00000000  00000000  00002bbc  2**2
                  CONTENTS, READONLY, DEBUGGING
  4 .stabstr      000001b4  00000000  00000000  00003f48  2**0
                  CONTENTS, READONLY, DEBUGGING
  5 .debug_aranges 00000300  00000000  00000000  000040fc  2**0
                  CONTENTS, READONLY, DEBUGGING
  6 .debug_pubnames 00000f67  00000000  00000000  000043fc  2**0
                  CONTENTS, READONLY, DEBUGGING
  7 .debug_info   00003e7f  00000000  00000000  00005363  2**0
                  CONTENTS, READONLY, DEBUGGING
  8 .debug_abbrev 00001a95  00000000  00000000  000091e2  2**0
                  CONTENTS, READONLY, DEBUGGING
  9 .debug_line   00003219  00000000  00000000  0000ac77  2**0
                  CONTENTS, READONLY, DEBUGGING
 10 .debug_frame  000005d0  00000000  00000000  0000de90  2**2
                  CONTENTS, READONLY, DEBUGGING
 11 .debug_str    00000c99  00000000  00000000  0000e460  2**0
                  CONTENTS, READONLY, DEBUGGING
 12 .debug_loc    00002686  00000000  00000000  0000f0f9  2**0
                  CONTENTS, READONLY, DEBUGGING
 13 .debug_pubtypes 000007ed  00000000  00000000  0001177f  2**0
                  CONTENTS, READONLY, DEBUGGING
 14 .debug_ranges 00000100  00000000  00000000  00011f6c  2**0
                  CONTENTS, READONLY, DEBUGGING

Disassembly of section .text:

00000000 <__vectors>:
       0:	0c 94 b3 01 	jmp	0x366	; 0x366 <__ctors_end>
       4:	0c 94 d2 01 	jmp	0x3a4	; 0x3a4 <__bad_interrupt>
       8:	0c 94 d2 01 	jmp	0x3a4	; 0x3a4 <__bad_interrupt>
       c:	0c 94 d2 01 	jmp	0x3a4	; 0x3a4 <__bad_interrupt>
      10:	0c 94 d2 01 	jmp	0x3a4	; 0x3a4 <__bad_interrupt>
      14:	0c 94 d2 01 	jmp	0x3a4	; 0x3a4 <__bad_interrupt>
      18:	0c 94 d2 01 	jmp	0x3a4	; 0x3a4 <__bad_interrupt>
      1c:	0c 94 d2 01 	jmp	0x3a4	; 0x3a4 <__bad_interrupt>
      20:	0c 94 d2 01 	jmp	0x3a4	; 0x3a4 <__bad_interrupt>
      24:	0c 94 d2 01 	jmp	0x3a4	; 0x3a4 <__bad_interrupt>
      28:	0c 94 d2 01 	jmp	0x3a4	; 0x3a4 <__bad_interrupt>
      2c:	0c 94 d2 01 	jmp	0x3a4	; 0x3a4 <__bad_interrupt>
      30:	0c 94 cf 09 	jmp	0x139e	; 0x139e <__vector_12>
      34:	0c 94 d2 01 	jmp	0x3a4	; 0x3a4 <__bad_interrupt>
      38:	0c 94 d2 01 	jmp	0x3a4	; 0x3a4 <__bad_interrupt>
      3c:	0c 94 d2 01 	jmp	0x3a4	; 0x3a4 <__bad_interrupt>
      40:	0c 94 d2 01 	jmp	0x3a4	; 0x3a4 <__bad_interrupt>
      44:	0c 94 d2 01 	jmp	0x3a4	; 0x3a4 <__bad_interrupt>
      48:	0c 94 4a 03 	jmp	0x694	; 0x694 <__vector_18>
      4c:	0c 94 d2 01 	jmp	0x3a4	; 0x3a4 <__bad_interrupt>
      50:	0c 94 d2 01 	jmp	0x3a4	; 0x3a4 <__bad_interrupt>
      54:	0c 94 d2 01 	jmp	0x3a4	; 0x3a4 <__bad_interrupt>
      58:	0c 94 d2 01 	jmp	0x3a4	; 0x3a4 <__bad_interrupt>
      5c:	0c 94 d2 01 	jmp	0x3a4	; 0x3a4 <__bad_interrupt>
      60:	0c 94 d2 01 	jmp	0x3a4	; 0x3a4 <__bad_interrupt>
      64:	0c 94 d2 01 	jmp	0x3a4	; 0x3a4 <__bad_interrupt>
      68:	0c 94 d2 01 	jmp	0x3a4	; 0x3a4 <__bad_interrupt>
      6c:	0c 94 d2 01 	jmp	0x3a4	; 0x3a4 <__bad_interrupt>
      70:	0c 94 d2 01 	jmp	0x3a4	; 0x3a4 <__bad_interrupt>
      74:	0c 94 d2 01 	jmp	0x3a4	; 0x3a4 <__bad_interrupt>
      78:	0c 94 d2 01 	jmp	0x3a4	; 0x3a4 <__bad_interrupt>
      7c:	0c 94 d2 01 	jmp	0x3a4	; 0x3a4 <__bad_interrupt>
      80:	0c 94 d2 01 	jmp	0x3a4	; 0x3a4 <__bad_interrupt>
      84:	0c 94 d2 01 	jmp	0x3a4	; 0x3a4 <__bad_interrupt>
      88:	0c 94 d2 01 	jmp	0x3a4	; 0x3a4 <__bad_interrupt>

0000008c <font5x8>:
      8c:	00 00 00 00 00 00 00 5f 00 00 00 07 00 07 00 14     ......._........
      9c:	7f 14 7f 14 24 2a 7f 2a 12 23 13 08 64 62 36 49     ....$*.*.#..db6I
      ac:	55 22 50 00 05 03 00 00 00 1c 22 41 00 00 41 22     U"P......."A..A"
      bc:	1c 00 08 2a 1c 2a 08 08 08 3e 08 08 00 50 30 00     ...*.*...>...P0.
      cc:	00 08 08 08 08 08 00 30 30 00 00 20 10 08 04 02     .......00.. ....
      dc:	3e 51 49 45 3e 00 42 7f 40 00 42 61 51 49 46 21     >QIE>.B.@.BaQIF!
      ec:	41 45 4b 31 18 14 12 7f 10 27 45 45 45 39 3c 4a     AEK1.....'EEE9<J
      fc:	49 49 30 01 71 09 05 03 36 49 49 49 36 06 49 49     II0.q...6III6.II
     10c:	29 1e 00 36 36 00 00 00 56 36 00 00 00 08 14 22     )..66...V6....."
     11c:	41 14 14 14 14 14 41 22 14 08 00 02 01 51 09 06     A.....A".....Q..
     12c:	32 49 79 41 3e 7e 11 11 11 7e 7f 49 49 49 36 3e     2IyA>~...~.III6>
     13c:	41 41 41 22 7f 41 41 22 1c 7f 49 49 49 41 7f 09     AAA".AA"..IIIA..
     14c:	09 01 01 3e 41 41 51 32 7f 08 08 08 7f 00 41 7f     ...>AAQ2......A.
     15c:	41 00 20 40 41 3f 01 7f 08 14 22 41 7f 40 40 40     A. @A?...."A.@@@
     16c:	40 7f 02 04 02 7f 7f 04 08 10 7f 3e 41 41 41 3e     @..........>AAA>
     17c:	7f 09 09 09 06 3e 41 51 21 5e 7f 09 19 29 46 46     .....>AQ!^...)FF
     18c:	49 49 49 31 01 01 7f 01 01 3f 40 40 40 3f 1f 20     III1.....?@@@?. 
     19c:	40 20 1f 7f 20 18 20 7f 63 14 08 14 63 03 04 78     @ .. . .c...c..x
     1ac:	04 03 61 51 49 45 43 00 00 7f 41 41 02 04 08 10     ..aQIEC...AA....
     1bc:	20 41 41 7f 00 00 04 02 01 02 04 40 40 40 40 40      AA........@@@@@
     1cc:	00 01 02 04 00 20 54 54 54 78 7f 48 44 44 38 38     ..... TTTx.HDD88
     1dc:	44 44 44 20 38 44 44 48 7f 38 54 54 54 18 08 7e     DDD 8DDH.8TTT..~
     1ec:	09 01 02 08 14 54 54 3c 7f 08 04 04 78 00 44 7d     .....TT<....x.D}
     1fc:	40 00 20 40 44 3d 00 00 7f 10 28 44 00 41 7f 40     @. @D=....(D.A.@
     20c:	00 7c 04 18 04 78 7c 08 04 04 78 38 44 44 44 38     .|...x|...x8DDD8
     21c:	7c 14 14 14 08 08 14 14 18 7c 7c 08 04 04 08 48     |........||....H
     22c:	54 54 54 20 04 3f 44 40 20 3c 40 40 20 7c 1c 20     TTT .?D@ <@@ |. 
     23c:	40 20 1c 3c 40 30 40 3c 44 28 10 28 44 0c 50 50     @ .<@0@<D(.(D.PP
     24c:	50 3c 44 64 54 4c 44 00 08 36 41 00 00 00 7f 00     P<DdTLD..6A.....
     25c:	00 00 41 36 08 00 08 08 2a 1c 08 08 1c 2a 08 08     ..A6....*....*..
     26c:	00 40 7a 10 f3 5a 00 a0 72 4e 18 09 00 10 a5 d4     .@z..Z..rN......
     27c:	e8 00 00 e8 76 48 17 00 00 e4 0b 54 02 00 00 ca     ....vH.....T....
     28c:	9a 3b 00 00 00 e1 f5 05 00 00 80 96 98 00 00 00     .;..............
     29c:	40 42 0f 00 00 00 a0 86 01 00 00 00 10 27 00 00     @B...........'..
     2ac:	00 00 e8 03 00 00 00 00 64 00 00 00 00 00 0a 00     ........d.......
     2bc:	00 00 00 00 01 00 00 00 00 00 2c 76 d8 88 dc 67     ..........,v...g
     2cc:	4f 08 23 df c1 df ae 59 e1 b1 b7 96 e5 e3 e4 53     O.#....Y.......S
     2dc:	c6 3a e6 51 99 76 96 e8 e6 c2 84 26 eb 89 8c 9b     .:.Q.v.....&....
     2ec:	62 ed 40 7c 6f fc ef bc 9c 9f 40 f2 ba a5 6f a5     b.@|o.....@...o.
     2fc:	f4 90 05 5a 2a f7 5c 93 6b 6c f9 67 6d c1 1b fc     ...Z*.\.kl.gm...
     30c:	e0 e4 0d 47 fe f5 20 e6 b5 00 d0 ed 90 2e 03 00     ...G.. .........
     31c:	94 35 77 05 00 80 84 1e 08 00 00 20 4e 0a 00 00     .5w........ N...
     32c:	00 c8 0c 33 33 33 33 0f 98 6e 12 83 11 41 ef 8d     ...3333..n...A..
     33c:	21 14 89 3b e6 55 16 cf fe e6 db 18 d1 84 4b 38     !..;.U........K8
     34c:	1b f7 7c 1d 90 1d a4 bb e4 24 20 32 84 72 5e 22     ..|......$ 2.r^"
     35c:	81 00 c9 f1 24 ec a1 e5 3d 27                       ....$...='

00000366 <__ctors_end>:
     366:	11 24       	eor	r1, r1
     368:	1f be       	out	0x3f, r1	; 63
     36a:	cf ef       	ldi	r28, 0xFF	; 255
     36c:	d0 e1       	ldi	r29, 0x10	; 16
     36e:	de bf       	out	0x3e, r29	; 62
     370:	cd bf       	out	0x3d, r28	; 61

00000372 <__do_copy_data>:
     372:	12 e0       	ldi	r17, 0x02	; 2
     374:	a0 e0       	ldi	r26, 0x00	; 0
     376:	b1 e0       	ldi	r27, 0x01	; 1
     378:	ea ee       	ldi	r30, 0xEA	; 234
     37a:	f9 e2       	ldi	r31, 0x29	; 41
     37c:	00 e0       	ldi	r16, 0x00	; 0
     37e:	0b bf       	out	0x3b, r16	; 59
     380:	02 c0       	rjmp	.+4      	; 0x386 <__do_copy_data+0x14>
     382:	07 90       	elpm	r0, Z+
     384:	0d 92       	st	X+, r0
     386:	ae 33       	cpi	r26, 0x3E	; 62
     388:	b1 07       	cpc	r27, r17
     38a:	d9 f7       	brne	.-10     	; 0x382 <__do_copy_data+0x10>

0000038c <__do_clear_bss>:
     38c:	12 e0       	ldi	r17, 0x02	; 2
     38e:	ae e3       	ldi	r26, 0x3E	; 62
     390:	b2 e0       	ldi	r27, 0x02	; 2
     392:	01 c0       	rjmp	.+2      	; 0x396 <.do_clear_bss_start>

00000394 <.do_clear_bss_loop>:
     394:	1d 92       	st	X+, r1

00000396 <.do_clear_bss_start>:
     396:	a4 38       	cpi	r26, 0x84	; 132
     398:	b1 07       	cpc	r27, r17
     39a:	e1 f7       	brne	.-8      	; 0x394 <.do_clear_bss_loop>
     39c:	0e 94 d4 01 	call	0x3a8	; 0x3a8 <main>
     3a0:	0c 94 f3 14 	jmp	0x29e6	; 0x29e6 <_exit>

000003a4 <__bad_interrupt>:
     3a4:	0c 94 00 00 	jmp	0	; 0x0 <__vectors>

000003a8 <main>:
#include "obsluga_eeprom.h"
#include "wyglad_wyswietlacza.h"



int main(){
     3a8:	8f 92       	push	r8
     3aa:	af 92       	push	r10
     3ac:	cf 92       	push	r12
     3ae:	df 92       	push	r13
     3b0:	ef 92       	push	r14
     3b2:	ff 92       	push	r15
     3b4:	0f 93       	push	r16

EEPROM_write_byte(max_speed_adress, 0);
     3b6:	81 e0       	ldi	r24, 0x01	; 1
     3b8:	90 e0       	ldi	r25, 0x00	; 0
     3ba:	60 e0       	ldi	r22, 0x00	; 0
     3bc:	0e 94 e0 08 	call	0x11c0	; 0x11c0 <EEPROM_write_byte>
     3c0:	e2 e5       	ldi	r30, 0x52	; 82
     3c2:	f2 e0       	ldi	r31, 0x02	; 2

	for(int i = 0; i < 36; i++){
		tablica_odpowiedzi_bms[i] = 0;
     3c4:	11 92       	st	Z+, r1

int main(){

EEPROM_write_byte(max_speed_adress, 0);

	for(int i = 0; i < 36; i++){
     3c6:	22 e0       	ldi	r18, 0x02	; 2
     3c8:	e6 37       	cpi	r30, 0x76	; 118
     3ca:	f2 07       	cpc	r31, r18
     3cc:	d9 f7       	brne	.-10     	; 0x3c4 <main+0x1c>
		tablica_odpowiedzi_bms[i] = 0;
	}

	licznik_10ms = 0;
     3ce:	10 92 83 02 	sts	0x0283, r1
     3d2:	10 92 82 02 	sts	0x0282, r1
	licznik_20ms = 0;
     3d6:	10 92 77 02 	sts	0x0277, r1
     3da:	10 92 76 02 	sts	0x0276, r1
	licznik_1s = 0;
     3de:	10 92 48 02 	sts	0x0248, r1
     3e2:	10 92 47 02 	sts	0x0247, r1
	licznik_3s = 0;
     3e6:	10 92 4e 02 	sts	0x024E, r1
     3ea:	10 92 4d 02 	sts	0x024D, r1

	znacznik_numer_zapytania = 0;
     3ee:	10 92 80 02 	sts	0x0280, r1
	bufor_data_bms = 0;
     3f2:	10 92 42 02 	sts	0x0242, r1
     3f6:	10 92 43 02 	sts	0x0243, r1
     3fa:	10 92 44 02 	sts	0x0244, r1
     3fe:	10 92 45 02 	sts	0x0245, r1
	znacznik_part_ramki = 0;
     402:	10 92 78 02 	sts	0x0278, r1

	napiecie_silnik = 0;
     406:	10 92 4c 02 	sts	0x024C, r1
     40a:	10 92 4b 02 	sts	0x024B, r1
	prad_bocznik = 0;
     40e:	10 92 40 02 	sts	0x0240, r1
     412:	10 92 3f 02 	sts	0x023F, r1
	napiecie_silnik_liczba=0;
     416:	10 92 81 02 	sts	0x0281, r1
	prad_bocznik_liczba=0;
     41a:	10 92 41 02 	sts	0x0241, r1
	napiecie_srednie_cela = 0;
     41e:	10 92 7f 02 	sts	0x027F, r1
     422:	10 92 7e 02 	sts	0x027E, r1

	temp_bms=0;
     426:	10 92 4a 02 	sts	0x024A, r1
	temp_chl=0;
     42a:	10 92 4f 02 	sts	0x024F, r1

	predkosc = 0;
     42e:	10 92 51 02 	sts	0x0251, r1
	max_predkosc = EEPROM_read_byte(max_speed_adress);
     432:	81 e0       	ldi	r24, 0x01	; 1
     434:	90 e0       	ldi	r25, 0x00	; 0
     436:	0e 94 92 08 	call	0x1124	; 0x1124 <EEPROM_read_byte>
     43a:	80 93 50 02 	sts	0x0250, r24

	napiecie_srednie_cela = 0;
     43e:	10 92 7f 02 	sts	0x027F, r1
     442:	10 92 7e 02 	sts	0x027E, r1
	napiecie_srednie_cela_liczba = 0;
     446:	80 e0       	ldi	r24, 0x00	; 0
     448:	90 e0       	ldi	r25, 0x00	; 0
     44a:	dc 01       	movw	r26, r24
     44c:	80 93 79 02 	sts	0x0279, r24
     450:	90 93 7a 02 	sts	0x027A, r25
     454:	a0 93 7b 02 	sts	0x027B, r26
     458:	b0 93 7c 02 	sts	0x027C, r27

	szerokosc_paska_prad_bocznik = 0;
     45c:	10 92 49 02 	sts	0x0249, r1
	szerokosc_paska_predkosci = 0;
     460:	10 92 3e 02 	sts	0x023E, r1
	szerokosc_paska_napiecia_cela_real = 0;
     464:	10 92 7d 02 	sts	0x027D, r1
	szerokosc_paska_napiecia_cela_teor = 0;
     468:	10 92 46 02 	sts	0x0246, r1

	DDRB = 0xff;
     46c:	8f ef       	ldi	r24, 0xFF	; 255
     46e:	87 bb       	out	0x17, r24	; 23
	zielony;
     470:	88 b3       	in	r24, 0x18	; 24
     472:	8f 73       	andi	r24, 0x3F	; 63
     474:	80 64       	ori	r24, 0x40	; 64
     476:	88 bb       	out	0x18, r24	; 24
	
	timer1_init();
     478:	0e 94 01 0a 	call	0x1402	; 0x1402 <timer1_init>
	initUSART0();
     47c:	0e 94 ec 02 	call	0x5d8	; 0x5d8 <initUSART0>
	GLCD_Initialize();
     480:	0e 94 cf 05 	call	0xb9e	; 0xb9e <GLCD_Initialize>
	GLCD_Clear();
     484:	0e 94 0f 06 	call	0xc1e	; 0xc1e <GLCD_Clear>
	ADC_init();
     488:	0e 94 13 0a 	call	0x1426	; 0x1426 <ADC_init>
	//pobranie z EEPROMu max_speedu i przechowywanie go w zmiennej.



	while(1){
		if(licznik_10ms >= 3){
     48c:	80 91 82 02 	lds	r24, 0x0282
     490:	90 91 83 02 	lds	r25, 0x0283
     494:	83 30       	cpi	r24, 0x03	; 3
     496:	91 05       	cpc	r25, r1
     498:	40 f0       	brcs	.+16     	; 0x4aa <main+0x102>
			licznik_10ms = 0;
     49a:	10 92 83 02 	sts	0x0283, r1
     49e:	10 92 82 02 	sts	0x0282, r1
			transmit8bitUSART(znacznik_numer_zapytania);
     4a2:	80 91 80 02 	lds	r24, 0x0280
     4a6:	0e 94 ff 02 	call	0x5fe	; 0x5fe <transmit8bitUSART>
		}

		if(licznik_20ms >= 2){
     4aa:	80 91 76 02 	lds	r24, 0x0276
     4ae:	90 91 77 02 	lds	r25, 0x0277
     4b2:	82 30       	cpi	r24, 0x02	; 2
     4b4:	91 05       	cpc	r25, r1
     4b6:	08 f4       	brcc	.+2      	; 0x4ba <main+0x112>
     4b8:	47 c0       	rjmp	.+142    	; 0x548 <main+0x1a0>

			licznik_20ms = 0;
     4ba:	10 92 77 02 	sts	0x0277, r1
     4be:	10 92 76 02 	sts	0x0276, r1
			napiecie_silnik = zmierz_prad_bocznik();
     4c2:	0e 94 1b 0a 	call	0x1436	; 0x1436 <zmierz_prad_bocznik>
     4c6:	90 93 4c 02 	sts	0x024C, r25
     4ca:	80 93 4b 02 	sts	0x024B, r24
			prad_bocznik = zmierz_napiecie_silnik();
     4ce:	0e 94 23 0a 	call	0x1446	; 0x1446 <zmierz_napiecie_silnik>
     4d2:	90 93 40 02 	sts	0x0240, r25
     4d6:	80 93 3f 02 	sts	0x023F, r24

			napiecie_silnik_liczba = oblicz_napiecie_silnik(napiecie_silnik);
     4da:	80 91 4b 02 	lds	r24, 0x024B
     4de:	90 91 4c 02 	lds	r25, 0x024C
     4e2:	0e 94 2b 0a 	call	0x1456	; 0x1456 <oblicz_napiecie_silnik>
     4e6:	80 93 81 02 	sts	0x0281, r24
			prad_bocznik_liczba = oblicz_prad_bocznik(prad_bocznik);
     4ea:	80 91 3f 02 	lds	r24, 0x023F
     4ee:	90 91 40 02 	lds	r25, 0x0240
     4f2:	0e 94 4e 0a 	call	0x149c	; 0x149c <oblicz_prad_bocznik>
     4f6:	68 2f       	mov	r22, r24
     4f8:	80 93 41 02 	sts	0x0241, r24

			predkosc = oblicz_predkosc(napiecie_silnik_liczba, prad_bocznik_liczba);			
     4fc:	80 91 81 02 	lds	r24, 0x0281
     500:	0e 94 71 0a 	call	0x14e2	; 0x14e2 <oblicz_predkosc>
     504:	80 93 51 02 	sts	0x0251, r24

			szerokosc_paska_prad_bocznik = oblicz_szerokosc_paska_prad_bocznika(prad_bocznik);
     508:	80 91 3f 02 	lds	r24, 0x023F
     50c:	90 91 40 02 	lds	r25, 0x0240
     510:	0e 94 09 0b 	call	0x1612	; 0x1612 <oblicz_szerokosc_paska_prad_bocznika>
     514:	80 93 49 02 	sts	0x0249, r24
			szerokosc_paska_predkosci = oblicz_szerokosc_paska_predkosc(predkosc);
     518:	80 91 51 02 	lds	r24, 0x0251
     51c:	0e 94 26 0b 	call	0x164c	; 0x164c <oblicz_szerokosc_paska_predkosc>
     520:	80 93 3e 02 	sts	0x023E, r24

			max_predkosc = porownaj_1bytowe(max_speed_adress, predkosc, max_predkosc);
     524:	81 e0       	ldi	r24, 0x01	; 1
     526:	90 e0       	ldi	r25, 0x00	; 0
     528:	60 91 51 02 	lds	r22, 0x0251
     52c:	40 91 50 02 	lds	r20, 0x0250
     530:	0e 94 24 09 	call	0x1248	; 0x1248 <porownaj_1bytowe>
     534:	80 93 50 02 	sts	0x0250, r24

			rysuj_pasek_pradu(szerokosc_paska_prad_bocznik);
     538:	80 91 49 02 	lds	r24, 0x0249
     53c:	0e 94 30 04 	call	0x860	; 0x860 <rysuj_pasek_pradu>
			rysuj_pasek_predkosci(szerokosc_paska_predkosci);
     540:	80 91 3e 02 	lds	r24, 0x023E
     544:	0e 94 44 04 	call	0x888	; 0x888 <rysuj_pasek_predkosci>
	
		}
			

		if(licznik_1s >= 100){
     548:	80 91 47 02 	lds	r24, 0x0247
     54c:	90 91 48 02 	lds	r25, 0x0248
     550:	84 36       	cpi	r24, 0x64	; 100
     552:	91 05       	cpc	r25, r1
     554:	20 f0       	brcs	.+8      	; 0x55e <main+0x1b6>
			licznik_1s = 0;
     556:	10 92 48 02 	sts	0x0248, r1
     55a:	10 92 47 02 	sts	0x0247, r1
			//to jest licznik czasu, a do czego czas sluzy? - jeszcze nie wiem.
			//to jest zapytanie do o informacjê do karola.
		}

		if(licznik_3s >= 300){
     55e:	80 91 4d 02 	lds	r24, 0x024D
     562:	90 91 4e 02 	lds	r25, 0x024E
     566:	21 e0       	ldi	r18, 0x01	; 1
     568:	8c 32       	cpi	r24, 0x2C	; 44
     56a:	92 07       	cpc	r25, r18
     56c:	08 f4       	brcc	.+2      	; 0x570 <main+0x1c8>
     56e:	8e cf       	rjmp	.-228    	; 0x48c <main+0xe4>
			licznik_3s = 0;
     570:	10 92 4e 02 	sts	0x024E, r1
     574:	10 92 4d 02 	sts	0x024D, r1
			napiecie_srednie_cela = oblicz_napiecie_srednie_cela();
     578:	0e 94 bc 0a 	call	0x1578	; 0x1578 <oblicz_napiecie_srednie_cela>
     57c:	90 93 7f 02 	sts	0x027F, r25
     580:	80 93 7e 02 	sts	0x027E, r24
			napiecie_srednie_cela_liczba = oblicz_napiecie_srednie_cela_liczba();
     584:	0e 94 ee 0a 	call	0x15dc	; 0x15dc <oblicz_napiecie_srednie_cela_liczba>
     588:	60 93 79 02 	sts	0x0279, r22
     58c:	70 93 7a 02 	sts	0x027A, r23
     590:	80 93 7b 02 	sts	0x027B, r24
     594:	90 93 7c 02 	sts	0x027C, r25
			szerokosc_paska_napiecia_cela_real = oblicz_szerokosc_paska_napiecie_cela_real(napiecie_srednie_cela);
     598:	80 91 7e 02 	lds	r24, 0x027E
     59c:	90 91 7f 02 	lds	r25, 0x027F
     5a0:	0e 94 27 0b 	call	0x164e	; 0x164e <oblicz_szerokosc_paska_napiecie_cela_real>
     5a4:	48 2f       	mov	r20, r24
     5a6:	80 93 7d 02 	sts	0x027D, r24

			ustaw_wyglad(szerokosc_paska_prad_bocznik, szerokosc_paska_predkosci, szerokosc_paska_napiecia_cela_real, 
     5aa:	c0 90 79 02 	lds	r12, 0x0279
     5ae:	d0 90 7a 02 	lds	r13, 0x027A
     5b2:	e0 90 7b 02 	lds	r14, 0x027B
     5b6:	f0 90 7c 02 	lds	r15, 0x027C
     5ba:	80 91 49 02 	lds	r24, 0x0249
     5be:	60 91 3e 02 	lds	r22, 0x023E
     5c2:	20 91 46 02 	lds	r18, 0x0246
     5c6:	00 91 50 02 	lds	r16, 0x0250
     5ca:	a0 90 4a 02 	lds	r10, 0x024A
     5ce:	80 90 4f 02 	lds	r8, 0x024F
     5d2:	0e 94 80 04 	call	0x900	; 0x900 <ustaw_wyglad>
     5d6:	5a cf       	rjmp	.-332    	; 0x48c <main+0xe4>

000005d8 <initUSART0>:
		znacznik_part_ramki=0;
	}
}

void initUSART0(){
	DDRE|=(1<<PE2);															//ja generuje zegar w USARTCIE - Piotrek musi ustawiæ na wejœcie
     5d8:	12 9a       	sbi	0x02, 2	; 2
	UBRR0H = (BAUDRATE>>8);													/* set baudrate */
     5da:	83 e0       	ldi	r24, 0x03	; 3
     5dc:	80 93 90 00 	sts	0x0090, r24
	UBRR0L = BAUDRATE;												/* set baudrate */
     5e0:	80 e4       	ldi	r24, 0x40	; 64
     5e2:	89 b9       	out	0x09, r24	; 9
	UCSR0B |= (1<<TXEN0)|(1<<RXEN0);											/* enable receiver and transmitter */
     5e4:	8a b1       	in	r24, 0x0a	; 10
     5e6:	88 61       	ori	r24, 0x18	; 24
     5e8:	8a b9       	out	0x0a, r24	; 10
	UCSR0B &= ~(1<<UCSZ02);													/* 8bit data format*/	
     5ea:	52 98       	cbi	0x0a, 2	; 10
	UCSR0C |= (1<<UCSZ00)|(1<<UCSZ01)|(1<<USBS0)|(1<<UMSEL0)|(1<<UCPOL0);	/* UCSZ - 8bit data format. USBS - 2bit stop, tryb asynchroniczny, wybor zboacz przy nadawaniu i odczytywaniu */
     5ec:	e5 e9       	ldi	r30, 0x95	; 149
     5ee:	f0 e0       	ldi	r31, 0x00	; 0
     5f0:	80 81       	ld	r24, Z
     5f2:	8f 64       	ori	r24, 0x4F	; 79
     5f4:	80 83       	st	Z, r24
	UCSR0C &= ~(1<<UPM00) & ~(1<<UPM01); 									//brak bitu parzystoœci/nieparzystoœcu
     5f6:	80 81       	ld	r24, Z
     5f8:	8f 7c       	andi	r24, 0xCF	; 207
     5fa:	80 83       	st	Z, r24
	//prepareUSARTFunctions();
}
     5fc:	08 95       	ret

000005fe <transmit8bitUSART>:


void transmit8bitUSART(uint8_t data){
	while( !(UCSR0A & (1<<UDRE0) ));
     5fe:	5d 9b       	sbis	0x0b, 5	; 11
     600:	fe cf       	rjmp	.-4      	; 0x5fe <transmit8bitUSART>
	UDR0 = data;
     602:	8c b9       	out	0x0c, r24	; 12
}
     604:	08 95       	ret

00000606 <receive8bitUSART>:

uint8_t receive8bitUSART(){
	while( !(UCSR0A & (1<<RXC0)) );
     606:	5f 9b       	sbis	0x0b, 7	; 11
     608:	fe cf       	rjmp	.-4      	; 0x606 <receive8bitUSART>
	uint8_t data = UDR0;
     60a:	8c b1       	in	r24, 0x0c	; 12
	return data;
}
     60c:	08 95       	ret

0000060e <rebuild_frame_from_bms>:

uint32_t rebuild_frame_from_bms(){
     60e:	ef 92       	push	r14
     610:	ff 92       	push	r15
     612:	0f 93       	push	r16
     614:	1f 93       	push	r17
	uint32_t frame = 0;
	for(int i = 2; i >= 0; i--){
		frame += (((uint32_t)receive8bitUSART()) << (i*8));
     616:	0e 94 03 03 	call	0x606	; 0x606 <receive8bitUSART>
     61a:	e8 2e       	mov	r14, r24
     61c:	0e 94 03 03 	call	0x606	; 0x606 <receive8bitUSART>
     620:	ff 24       	eor	r15, r15
     622:	00 e0       	ldi	r16, 0x00	; 0
     624:	10 e0       	ldi	r17, 0x00	; 0
     626:	87 01       	movw	r16, r14
     628:	ff 24       	eor	r15, r15
     62a:	ee 24       	eor	r14, r14
     62c:	90 e0       	ldi	r25, 0x00	; 0
     62e:	a0 e0       	ldi	r26, 0x00	; 0
     630:	b0 e0       	ldi	r27, 0x00	; 0
     632:	ba 2f       	mov	r27, r26
     634:	a9 2f       	mov	r26, r25
     636:	98 2f       	mov	r25, r24
     638:	88 27       	eor	r24, r24
     63a:	e8 0e       	add	r14, r24
     63c:	f9 1e       	adc	r15, r25
     63e:	0a 1f       	adc	r16, r26
     640:	1b 1f       	adc	r17, r27
     642:	0e 94 03 03 	call	0x606	; 0x606 <receive8bitUSART>
     646:	a8 01       	movw	r20, r16
     648:	97 01       	movw	r18, r14
     64a:	28 0f       	add	r18, r24
     64c:	31 1d       	adc	r19, r1
     64e:	41 1d       	adc	r20, r1
     650:	51 1d       	adc	r21, r1
	}
	return frame;
}
     652:	b9 01       	movw	r22, r18
     654:	ca 01       	movw	r24, r20
     656:	1f 91       	pop	r17
     658:	0f 91       	pop	r16
     65a:	ff 90       	pop	r15
     65c:	ef 90       	pop	r14
     65e:	08 95       	ret

00000660 <check_crc>:

uint8_t check_crc(uint32_t frame){
     660:	ef 92       	push	r14
     662:	ff 92       	push	r15
     664:	0f 93       	push	r16
     666:	1f 93       	push	r17
     668:	7b 01       	movw	r14, r22
     66a:	8c 01       	movw	r16, r24
	if(((uint8_t)(frame >> 20)) != calculate4bitCRC(frame & 0xffffff)){
     66c:	90 70       	andi	r25, 0x00	; 0
     66e:	0e 94 b0 09 	call	0x1360	; 0x1360 <calculate4bitCRC>
     672:	44 e1       	ldi	r20, 0x14	; 20
     674:	16 95       	lsr	r17
     676:	07 95       	ror	r16
     678:	f7 94       	ror	r15
     67a:	e7 94       	ror	r14
     67c:	4a 95       	dec	r20
     67e:	d1 f7       	brne	.-12     	; 0x674 <check_crc+0x14>
		return 1;
     680:	91 e0       	ldi	r25, 0x01	; 1
     682:	8e 15       	cp	r24, r14
     684:	09 f4       	brne	.+2      	; 0x688 <check_crc+0x28>
     686:	90 e0       	ldi	r25, 0x00	; 0
	}
	else{
		return 0;
	}
}
     688:	89 2f       	mov	r24, r25
     68a:	1f 91       	pop	r17
     68c:	0f 91       	pop	r16
     68e:	ff 90       	pop	r15
     690:	ef 90       	pop	r14
     692:	08 95       	ret

00000694 <__vector_18>:
#define BAUDRATE ((F_CPU)/(BAUD*2UL)-1)
extern uint8_t ustaw_znacznik_ncb;



ISR(USART0_RX_vect){
     694:	1f 92       	push	r1
     696:	0f 92       	push	r0
     698:	0f b6       	in	r0, 0x3f	; 63
     69a:	0f 92       	push	r0
     69c:	0b b6       	in	r0, 0x3b	; 59
     69e:	0f 92       	push	r0
     6a0:	11 24       	eor	r1, r1
     6a2:	ef 92       	push	r14
     6a4:	ff 92       	push	r15
     6a6:	0f 93       	push	r16
     6a8:	1f 93       	push	r17
     6aa:	2f 93       	push	r18
     6ac:	3f 93       	push	r19
     6ae:	4f 93       	push	r20
     6b0:	5f 93       	push	r21
     6b2:	6f 93       	push	r22
     6b4:	7f 93       	push	r23
     6b6:	8f 93       	push	r24
     6b8:	9f 93       	push	r25
     6ba:	af 93       	push	r26
     6bc:	bf 93       	push	r27
     6be:	ef 93       	push	r30
     6c0:	ff 93       	push	r31
	uint32_t tymczasowy_bufor = receive8bitUSART();
     6c2:	0e 94 03 03 	call	0x606	; 0x606 <receive8bitUSART>
	tymczasowy_bufor = tymczasowy_bufor << (2-(8*znacznik_part_ramki));
     6c6:	90 91 78 02 	lds	r25, 0x0278
	if(znacznik_part_ramki >= 2){
     6ca:	92 30       	cpi	r25, 0x02	; 2
     6cc:	08 f4       	brcc	.+2      	; 0x6d0 <__vector_18+0x3c>
     6ce:	3f c0       	rjmp	.+126    	; 0x74e <__vector_18+0xba>
extern uint8_t ustaw_znacznik_ncb;



ISR(USART0_RX_vect){
	uint32_t tymczasowy_bufor = receive8bitUSART();
     6d0:	e8 2e       	mov	r14, r24
     6d2:	ff 24       	eor	r15, r15
     6d4:	00 e0       	ldi	r16, 0x00	; 0
     6d6:	10 e0       	ldi	r17, 0x00	; 0
	tymczasowy_bufor = tymczasowy_bufor << (2-(8*znacznik_part_ramki));
     6d8:	89 2f       	mov	r24, r25
     6da:	90 e0       	ldi	r25, 0x00	; 0
     6dc:	90 95       	com	r25
     6de:	81 95       	neg	r24
     6e0:	9f 4f       	sbci	r25, 0xFF	; 255
     6e2:	63 e0       	ldi	r22, 0x03	; 3
     6e4:	88 0f       	add	r24, r24
     6e6:	99 1f       	adc	r25, r25
     6e8:	6a 95       	dec	r22
     6ea:	e1 f7       	brne	.-8      	; 0x6e4 <__vector_18+0x50>
     6ec:	02 96       	adiw	r24, 0x02	; 2
     6ee:	04 c0       	rjmp	.+8      	; 0x6f8 <__vector_18+0x64>
     6f0:	ee 0c       	add	r14, r14
     6f2:	ff 1c       	adc	r15, r15
     6f4:	00 1f       	adc	r16, r16
     6f6:	11 1f       	adc	r17, r17
     6f8:	8a 95       	dec	r24
     6fa:	d2 f7       	brpl	.-12     	; 0x6f0 <__vector_18+0x5c>
	if(znacznik_part_ramki >= 2){
		if(check_crc(tymczasowy_bufor) && check_typ_data(tymczasowy_bufor, znacznik_numer_zapytania))
     6fc:	c8 01       	movw	r24, r16
     6fe:	b7 01       	movw	r22, r14
     700:	0e 94 30 03 	call	0x660	; 0x660 <check_crc>
     704:	88 23       	and	r24, r24
     706:	a9 f0       	breq	.+42     	; 0x732 <__vector_18+0x9e>
     708:	e0 91 80 02 	lds	r30, 0x0280
		return 0;
	}
}

uint8_t check_typ_data(uint32_t frame, uint8_t typ_data){
	if(((uint8_t)((frame & 0xff000) >> 12)) != typ_data){
     70c:	d8 01       	movw	r26, r16
     70e:	c7 01       	movw	r24, r14
     710:	80 70       	andi	r24, 0x00	; 0
     712:	90 7f       	andi	r25, 0xF0	; 240
     714:	af 70       	andi	r26, 0x0F	; 15
     716:	b0 70       	andi	r27, 0x00	; 0
     718:	5c e0       	ldi	r21, 0x0C	; 12
     71a:	b6 95       	lsr	r27
     71c:	a7 95       	ror	r26
     71e:	97 95       	ror	r25
     720:	87 95       	ror	r24
     722:	5a 95       	dec	r21
     724:	d1 f7       	brne	.-12     	; 0x71a <__vector_18+0x86>
     726:	e8 17       	cp	r30, r24
     728:	21 f0       	breq	.+8      	; 0x732 <__vector_18+0x9e>
ISR(USART0_RX_vect){
	uint32_t tymczasowy_bufor = receive8bitUSART();
	tymczasowy_bufor = tymczasowy_bufor << (2-(8*znacznik_part_ramki));
	if(znacznik_part_ramki >= 2){
		if(check_crc(tymczasowy_bufor) && check_typ_data(tymczasowy_bufor, znacznik_numer_zapytania))
			tablica_odpowiedzi_bms[znacznik_numer_zapytania] = (uint8_t)(tymczasowy_bufor & 0xff);
     72a:	f0 e0       	ldi	r31, 0x00	; 0
     72c:	ee 5a       	subi	r30, 0xAE	; 174
     72e:	fd 4f       	sbci	r31, 0xFD	; 253
     730:	e0 82       	st	Z, r14
			znacznik_numer_zapytania++;
     732:	80 91 80 02 	lds	r24, 0x0280
     736:	8f 5f       	subi	r24, 0xFF	; 255
     738:	80 93 80 02 	sts	0x0280, r24
			if(znacznik_numer_zapytania>=36){
     73c:	84 32       	cpi	r24, 0x24	; 36
     73e:	18 f0       	brcs	.+6      	; 0x746 <__vector_18+0xb2>
				znacznik_numer_zapytania=0;
     740:	10 92 80 02 	sts	0x0280, r1
     744:	02 c0       	rjmp	.+4      	; 0x74a <__vector_18+0xb6>
			}
		else{
			transmit8bitUSART(znacznik_numer_zapytania);
     746:	0e 94 ff 02 	call	0x5fe	; 0x5fe <transmit8bitUSART>
		}
		znacznik_part_ramki=0;
     74a:	10 92 78 02 	sts	0x0278, r1
	}
}
     74e:	ff 91       	pop	r31
     750:	ef 91       	pop	r30
     752:	bf 91       	pop	r27
     754:	af 91       	pop	r26
     756:	9f 91       	pop	r25
     758:	8f 91       	pop	r24
     75a:	7f 91       	pop	r23
     75c:	6f 91       	pop	r22
     75e:	5f 91       	pop	r21
     760:	4f 91       	pop	r20
     762:	3f 91       	pop	r19
     764:	2f 91       	pop	r18
     766:	1f 91       	pop	r17
     768:	0f 91       	pop	r16
     76a:	ff 90       	pop	r15
     76c:	ef 90       	pop	r14
     76e:	0f 90       	pop	r0
     770:	0b be       	out	0x3b, r0	; 59
     772:	0f 90       	pop	r0
     774:	0f be       	out	0x3f, r0	; 63
     776:	0f 90       	pop	r0
     778:	1f 90       	pop	r1
     77a:	18 95       	reti

0000077c <check_typ_data>:
		return 0;
	}
}

uint8_t check_typ_data(uint32_t frame, uint8_t typ_data){
	if(((uint8_t)((frame & 0xff000) >> 12)) != typ_data){
     77c:	60 70       	andi	r22, 0x00	; 0
     77e:	70 7f       	andi	r23, 0xF0	; 240
     780:	8f 70       	andi	r24, 0x0F	; 15
     782:	90 70       	andi	r25, 0x00	; 0
     784:	ec e0       	ldi	r30, 0x0C	; 12
     786:	96 95       	lsr	r25
     788:	87 95       	ror	r24
     78a:	77 95       	ror	r23
     78c:	67 95       	ror	r22
     78e:	ea 95       	dec	r30
     790:	d1 f7       	brne	.-12     	; 0x786 <check_typ_data+0xa>
		return 1;
     792:	21 e0       	ldi	r18, 0x01	; 1
     794:	46 17       	cp	r20, r22
     796:	09 f4       	brne	.+2      	; 0x79a <check_typ_data+0x1e>
     798:	20 e0       	ldi	r18, 0x00	; 0
	}
	else{
		return 0;
	}
}
     79a:	82 2f       	mov	r24, r18
     79c:	08 95       	ret

0000079e <take_data_from_bmsx>:

uint16_t take_data_from_bmsx(uint8_t typ_data){
     79e:	df 92       	push	r13
     7a0:	ef 92       	push	r14
     7a2:	ff 92       	push	r15
     7a4:	0f 93       	push	r16
     7a6:	1f 93       	push	r17
     7a8:	d8 2e       	mov	r13, r24
	uint32_t frame;
	do{
		transmit8bitUSART(typ_data);
     7aa:	8d 2d       	mov	r24, r13
     7ac:	0e 94 ff 02 	call	0x5fe	; 0x5fe <transmit8bitUSART>
		frame = rebuild_frame_from_bms();
     7b0:	0e 94 07 03 	call	0x60e	; 0x60e <rebuild_frame_from_bms>
     7b4:	7b 01       	movw	r14, r22
     7b6:	8c 01       	movw	r16, r24
	} 
	while(check_crc(frame) || check_typ_data(frame, typ_data));
     7b8:	0e 94 30 03 	call	0x660	; 0x660 <check_crc>
     7bc:	88 23       	and	r24, r24
     7be:	a9 f7       	brne	.-22     	; 0x7aa <take_data_from_bmsx+0xc>
		return 0;
	}
}

uint8_t check_typ_data(uint32_t frame, uint8_t typ_data){
	if(((uint8_t)((frame & 0xff000) >> 12)) != typ_data){
     7c0:	a8 01       	movw	r20, r16
     7c2:	97 01       	movw	r18, r14
     7c4:	20 70       	andi	r18, 0x00	; 0
     7c6:	30 7f       	andi	r19, 0xF0	; 240
     7c8:	4f 70       	andi	r20, 0x0F	; 15
     7ca:	50 70       	andi	r21, 0x00	; 0
     7cc:	fc e0       	ldi	r31, 0x0C	; 12
     7ce:	56 95       	lsr	r21
     7d0:	47 95       	ror	r20
     7d2:	37 95       	ror	r19
     7d4:	27 95       	ror	r18
     7d6:	fa 95       	dec	r31
     7d8:	d1 f7       	brne	.-12     	; 0x7ce <take_data_from_bmsx+0x30>
     7da:	d2 16       	cp	r13, r18
     7dc:	31 f7       	brne	.-52     	; 0x7aa <take_data_from_bmsx+0xc>
	do{
		transmit8bitUSART(typ_data);
		frame = rebuild_frame_from_bms();
	} 
	while(check_crc(frame) || check_typ_data(frame, typ_data));
	return (frame & 0xfff);
     7de:	97 01       	movw	r18, r14
     7e0:	3f 70       	andi	r19, 0x0F	; 15
}
     7e2:	c9 01       	movw	r24, r18
     7e4:	1f 91       	pop	r17
     7e6:	0f 91       	pop	r16
     7e8:	ff 90       	pop	r15
     7ea:	ef 90       	pop	r14
     7ec:	df 90       	pop	r13
     7ee:	08 95       	ret

000007f0 <take_data_from_bms>:

uint16_t take_data_from_bms(uint8_t typ_data){
     7f0:	df 92       	push	r13
     7f2:	ef 92       	push	r14
     7f4:	ff 92       	push	r15
     7f6:	0f 93       	push	r16
     7f8:	1f 93       	push	r17
     7fa:	cf 93       	push	r28
     7fc:	df 93       	push	r29
     7fe:	d8 2e       	mov	r13, r24
     800:	c5 e0       	ldi	r28, 0x05	; 5
     802:	d0 e0       	ldi	r29, 0x00	; 0
     804:	09 c0       	rjmp	.+18     	; 0x818 <take_data_from_bms+0x28>
	int i = 0;
	uint32_t frame;
	for(i = 0; ((i<5) && (check_crc(frame) || check_typ_data(frame, typ_data))); i++){
		transmit8bitUSART(typ_data);
     806:	8d 2d       	mov	r24, r13
     808:	0e 94 ff 02 	call	0x5fe	; 0x5fe <transmit8bitUSART>
		frame = rebuild_frame_from_bms();
     80c:	0e 94 07 03 	call	0x60e	; 0x60e <rebuild_frame_from_bms>
     810:	7b 01       	movw	r14, r22
     812:	8c 01       	movw	r16, r24
     814:	21 97       	sbiw	r28, 0x01	; 1
}

uint16_t take_data_from_bms(uint8_t typ_data){
	int i = 0;
	uint32_t frame;
	for(i = 0; ((i<5) && (check_crc(frame) || check_typ_data(frame, typ_data))); i++){
     816:	b1 f0       	breq	.+44     	; 0x844 <take_data_from_bms+0x54>
     818:	c8 01       	movw	r24, r16
     81a:	b7 01       	movw	r22, r14
     81c:	0e 94 30 03 	call	0x660	; 0x660 <check_crc>
     820:	88 23       	and	r24, r24
     822:	89 f7       	brne	.-30     	; 0x806 <take_data_from_bms+0x16>
		return 0;
	}
}

uint8_t check_typ_data(uint32_t frame, uint8_t typ_data){
	if(((uint8_t)((frame & 0xff000) >> 12)) != typ_data){
     824:	a8 01       	movw	r20, r16
     826:	97 01       	movw	r18, r14
     828:	20 70       	andi	r18, 0x00	; 0
     82a:	30 7f       	andi	r19, 0xF0	; 240
     82c:	4f 70       	andi	r20, 0x0F	; 15
     82e:	50 70       	andi	r21, 0x00	; 0
     830:	ac e0       	ldi	r26, 0x0C	; 12
     832:	56 95       	lsr	r21
     834:	47 95       	ror	r20
     836:	37 95       	ror	r19
     838:	27 95       	ror	r18
     83a:	aa 95       	dec	r26
     83c:	d1 f7       	brne	.-12     	; 0x832 <take_data_from_bms+0x42>
     83e:	d2 16       	cp	r13, r18
     840:	11 f7       	brne	.-60     	; 0x806 <take_data_from_bms+0x16>
     842:	0b c0       	rjmp	.+22     	; 0x85a <take_data_from_bms+0x6a>
	}
	if(i<5){
		return (frame & 0xfff);
	}
	else{
	return 0;
     844:	20 e0       	ldi	r18, 0x00	; 0
     846:	30 e0       	ldi	r19, 0x00	; 0
	}
}
     848:	c9 01       	movw	r24, r18
     84a:	df 91       	pop	r29
     84c:	cf 91       	pop	r28
     84e:	1f 91       	pop	r17
     850:	0f 91       	pop	r16
     852:	ff 90       	pop	r15
     854:	ef 90       	pop	r14
     856:	df 90       	pop	r13
     858:	08 95       	ret
	for(i = 0; ((i<5) && (check_crc(frame) || check_typ_data(frame, typ_data))); i++){
		transmit8bitUSART(typ_data);
		frame = rebuild_frame_from_bms();
	}
	if(i<5){
		return (frame & 0xfff);
     85a:	97 01       	movw	r18, r14
     85c:	3f 70       	andi	r19, 0x0F	; 15
     85e:	f4 cf       	rjmp	.-24     	; 0x848 <take_data_from_bms+0x58>

00000860 <rysuj_pasek_pradu>:
#include <stdlib.h>
#include "S1D15705.h"
#include "wyglad_wyswietlacza.h"
#include "graphic.h"

void rysuj_pasek_pradu(uint8_t dana){
     860:	1f 93       	push	r17
     862:	18 2f       	mov	r17, r24
	gruba_pozioma_czysc(2, 49, 66);
     864:	82 e0       	ldi	r24, 0x02	; 2
     866:	90 e0       	ldi	r25, 0x00	; 0
     868:	61 e3       	ldi	r22, 0x31	; 49
     86a:	70 e0       	ldi	r23, 0x00	; 0
     86c:	42 e4       	ldi	r20, 0x42	; 66
     86e:	50 e0       	ldi	r21, 0x00	; 0
     870:	0e 94 60 08 	call	0x10c0	; 0x10c0 <gruba_pozioma_czysc>
	gruba_pozioma(2, 49, dana);
     874:	82 e0       	ldi	r24, 0x02	; 2
     876:	90 e0       	ldi	r25, 0x00	; 0
     878:	61 e3       	ldi	r22, 0x31	; 49
     87a:	70 e0       	ldi	r23, 0x00	; 0
     87c:	41 2f       	mov	r20, r17
     87e:	50 e0       	ldi	r21, 0x00	; 0
     880:	0e 94 2e 08 	call	0x105c	; 0x105c <gruba_pozioma>
}
     884:	1f 91       	pop	r17
     886:	08 95       	ret

00000888 <rysuj_pasek_predkosci>:


void rysuj_pasek_predkosci(uint8_t dana){
     888:	1f 93       	push	r17
     88a:	18 2f       	mov	r17, r24
	gruba_pozioma_czysc(94, 9, 66);
     88c:	8e e5       	ldi	r24, 0x5E	; 94
     88e:	90 e0       	ldi	r25, 0x00	; 0
     890:	69 e0       	ldi	r22, 0x09	; 9
     892:	70 e0       	ldi	r23, 0x00	; 0
     894:	42 e4       	ldi	r20, 0x42	; 66
     896:	50 e0       	ldi	r21, 0x00	; 0
     898:	0e 94 60 08 	call	0x10c0	; 0x10c0 <gruba_pozioma_czysc>
	gruba_pozioma(94, 9, dana);
     89c:	8e e5       	ldi	r24, 0x5E	; 94
     89e:	90 e0       	ldi	r25, 0x00	; 0
     8a0:	69 e0       	ldi	r22, 0x09	; 9
     8a2:	70 e0       	ldi	r23, 0x00	; 0
     8a4:	41 2f       	mov	r20, r17
     8a6:	50 e0       	ldi	r21, 0x00	; 0
     8a8:	0e 94 2e 08 	call	0x105c	; 0x105c <gruba_pozioma>
}
     8ac:	1f 91       	pop	r17
     8ae:	08 95       	ret

000008b0 <rysuj_pasek_napiecia_cela_real>:


void rysuj_pasek_napiecia_cela_real(uint8_t data){
     8b0:	1f 93       	push	r17
     8b2:	18 2f       	mov	r17, r24
	gruba_pozioma_czysc(2, 9, 66);
     8b4:	82 e0       	ldi	r24, 0x02	; 2
     8b6:	90 e0       	ldi	r25, 0x00	; 0
     8b8:	69 e0       	ldi	r22, 0x09	; 9
     8ba:	70 e0       	ldi	r23, 0x00	; 0
     8bc:	42 e4       	ldi	r20, 0x42	; 66
     8be:	50 e0       	ldi	r21, 0x00	; 0
     8c0:	0e 94 60 08 	call	0x10c0	; 0x10c0 <gruba_pozioma_czysc>
	gruba_pozioma(2, 9, data);
     8c4:	82 e0       	ldi	r24, 0x02	; 2
     8c6:	90 e0       	ldi	r25, 0x00	; 0
     8c8:	69 e0       	ldi	r22, 0x09	; 9
     8ca:	70 e0       	ldi	r23, 0x00	; 0
     8cc:	41 2f       	mov	r20, r17
     8ce:	50 e0       	ldi	r21, 0x00	; 0
     8d0:	0e 94 2e 08 	call	0x105c	; 0x105c <gruba_pozioma>
}
     8d4:	1f 91       	pop	r17
     8d6:	08 95       	ret

000008d8 <rysuj_pasek_napiecia_cela_teor>:


void rysuj_pasek_napiecia_cela_teor(uint8_t data){
     8d8:	1f 93       	push	r17
     8da:	18 2f       	mov	r17, r24
	gruba_pozioma_czysc(2, 25, 66);
     8dc:	82 e0       	ldi	r24, 0x02	; 2
     8de:	90 e0       	ldi	r25, 0x00	; 0
     8e0:	69 e1       	ldi	r22, 0x19	; 25
     8e2:	70 e0       	ldi	r23, 0x00	; 0
     8e4:	42 e4       	ldi	r20, 0x42	; 66
     8e6:	50 e0       	ldi	r21, 0x00	; 0
     8e8:	0e 94 60 08 	call	0x10c0	; 0x10c0 <gruba_pozioma_czysc>
	gruba_pozioma(2, 25, data);
     8ec:	82 e0       	ldi	r24, 0x02	; 2
     8ee:	90 e0       	ldi	r25, 0x00	; 0
     8f0:	69 e1       	ldi	r22, 0x19	; 25
     8f2:	70 e0       	ldi	r23, 0x00	; 0
     8f4:	41 2f       	mov	r20, r17
     8f6:	50 e0       	ldi	r21, 0x00	; 0
     8f8:	0e 94 2e 08 	call	0x105c	; 0x105c <gruba_pozioma>
}
     8fc:	1f 91       	pop	r17
     8fe:	08 95       	ret

00000900 <ustaw_wyglad>:
	

 
void ustaw_wyglad(uint8_t szer_prad, uint8_t szer_pred, uint8_t szer_nap_cel_real, 
				uint8_t szer_nap_cel_teor, uint8_t max_speed, float nap_cel_real, uint8_t temp_bms, uint8_t temp_chl)
{
     900:	4f 92       	push	r4
     902:	5f 92       	push	r5
     904:	6f 92       	push	r6
     906:	7f 92       	push	r7
     908:	8f 92       	push	r8
     90a:	af 92       	push	r10
     90c:	bf 92       	push	r11
     90e:	cf 92       	push	r12
     910:	df 92       	push	r13
     912:	ef 92       	push	r14
     914:	ff 92       	push	r15
     916:	0f 93       	push	r16
     918:	1f 93       	push	r17
     91a:	df 93       	push	r29
     91c:	cf 93       	push	r28
     91e:	cd b7       	in	r28, 0x3d	; 61
     920:	de b7       	in	r29, 0x3e	; 62
     922:	61 97       	sbiw	r28, 0x11	; 17
     924:	0f b6       	in	r0, 0x3f	; 63
     926:	f8 94       	cli
     928:	de bf       	out	0x3e, r29	; 62
     92a:	0f be       	out	0x3f, r0	; 63
     92c:	cd bf       	out	0x3d, r28	; 61
     92e:	b0 2e       	mov	r11, r16
     930:	26 01       	movw	r4, r12
     932:	37 01       	movw	r6, r14
	//inicjalizacja wyswietlacza i czyszczenie go;
	GLCD_Initialize();
     934:	29 8b       	std	Y+17, r18	; 0x11
     936:	48 8b       	std	Y+16, r20	; 0x10
     938:	6f 87       	std	Y+15, r22	; 0x0f
     93a:	8e 87       	std	Y+14, r24	; 0x0e
     93c:	0e 94 cf 05 	call	0xb9e	; 0xb9e <GLCD_Initialize>
	GLCD_Clear();
     940:	0e 94 0f 06 	call	0xc1e	; 0xc1e <GLCD_Clear>
	
	//ustawianie paskow
	rysuj_pasek_pradu(szer_prad);
     944:	8e 85       	ldd	r24, Y+14	; 0x0e
     946:	0e 94 30 04 	call	0x860	; 0x860 <rysuj_pasek_pradu>
	rysuj_pasek_predkosci(szer_pred);
     94a:	6f 85       	ldd	r22, Y+15	; 0x0f
     94c:	86 2f       	mov	r24, r22
     94e:	0e 94 44 04 	call	0x888	; 0x888 <rysuj_pasek_predkosci>
	rysuj_pasek_napiecia_cela_real(szer_nap_cel_real);
     952:	48 89       	ldd	r20, Y+16	; 0x10
     954:	84 2f       	mov	r24, r20
     956:	0e 94 58 04 	call	0x8b0	; 0x8b0 <rysuj_pasek_napiecia_cela_real>
	rysuj_pasek_napiecia_cela_teor(szer_nap_cel_teor);
     95a:	29 89       	ldd	r18, Y+17	; 0x11
     95c:	82 2f       	mov	r24, r18
     95e:	0e 94 6c 04 	call	0x8d8	; 0x8d8 <rysuj_pasek_napiecia_cela_teor>


	//pierwszy prostokat lewa strona Volt - R
	GLCD_WriteStringXY(1,0,"Volt (");
     962:	81 e0       	ldi	r24, 0x01	; 1
     964:	60 e0       	ldi	r22, 0x00	; 0
     966:	40 e0       	ldi	r20, 0x00	; 0
     968:	51 e0       	ldi	r21, 0x01	; 1
     96a:	0e 94 a1 06 	call	0xd42	; 0xd42 <GLCD_WriteStringXY>
	GLCD_WriteStringXY(55,0,")");
     96e:	97 e0       	ldi	r25, 0x07	; 7
     970:	c9 2e       	mov	r12, r25
     972:	91 e0       	ldi	r25, 0x01	; 1
     974:	d9 2e       	mov	r13, r25
     976:	87 e3       	ldi	r24, 0x37	; 55
     978:	60 e0       	ldi	r22, 0x00	; 0
     97a:	a6 01       	movw	r20, r12
     97c:	0e 94 a1 06 	call	0xd42	; 0xd42 <GLCD_WriteStringXY>
	GLCD_Rectangle(0, 7, 70, 10);
     980:	80 e0       	ldi	r24, 0x00	; 0
     982:	67 e0       	ldi	r22, 0x07	; 7
     984:	46 e4       	ldi	r20, 0x46	; 70
     986:	2a e0       	ldi	r18, 0x0A	; 10
     988:	0e 94 ac 06 	call	0xd58	; 0xd58 <GLCD_Rectangle>
	GLCD_WriteStringXY(71,1,"R");
     98c:	87 e4       	ldi	r24, 0x47	; 71
     98e:	61 e0       	ldi	r22, 0x01	; 1
     990:	49 e0       	ldi	r20, 0x09	; 9
     992:	51 e0       	ldi	r21, 0x01	; 1
     994:	0e 94 a1 06 	call	0xd42	; 0xd42 <GLCD_WriteStringXY>

	char tab_nap_cel_real[4];
	dtostrf(nap_cel_real, 2, 1, tab_nap_cel_real); 
     998:	8a e0       	ldi	r24, 0x0A	; 10
     99a:	e8 2e       	mov	r14, r24
     99c:	f1 2c       	mov	r15, r1
     99e:	ec 0e       	add	r14, r28
     9a0:	fd 1e       	adc	r15, r29
     9a2:	c3 01       	movw	r24, r6
     9a4:	b2 01       	movw	r22, r4
     9a6:	42 e0       	ldi	r20, 0x02	; 2
     9a8:	21 e0       	ldi	r18, 0x01	; 1
     9aa:	87 01       	movw	r16, r14
     9ac:	0e 94 58 12 	call	0x24b0	; 0x24b0 <dtostrf>
	GLCD_WriteStringXY(37, 0, tab_nap_cel_real);;
     9b0:	85 e2       	ldi	r24, 0x25	; 37
     9b2:	60 e0       	ldi	r22, 0x00	; 0
     9b4:	a7 01       	movw	r20, r14
     9b6:	0e 94 a1 06 	call	0xd42	; 0xd42 <GLCD_WriteStringXY>


	//drugi prostokat lewa strona Volt - O
	GLCD_Rectangle(0, 23, 70, 10);
     9ba:	80 e0       	ldi	r24, 0x00	; 0
     9bc:	67 e1       	ldi	r22, 0x17	; 23
     9be:	46 e4       	ldi	r20, 0x46	; 70
     9c0:	2a e0       	ldi	r18, 0x0A	; 10
     9c2:	0e 94 ac 06 	call	0xd58	; 0xd58 <GLCD_Rectangle>
	GLCD_WriteStringXY(71,3,"O");
     9c6:	87 e4       	ldi	r24, 0x47	; 71
     9c8:	63 e0       	ldi	r22, 0x03	; 3
     9ca:	4b e0       	ldi	r20, 0x0B	; 11
     9cc:	51 e0       	ldi	r21, 0x01	; 1
     9ce:	0e 94 a1 06 	call	0xd42	; 0xd42 <GLCD_WriteStringXY>


	//trzeci prostokat lewa strona - Curr
	GLCD_WriteStringXY(1,5,"Curr");
     9d2:	81 e0       	ldi	r24, 0x01	; 1
     9d4:	65 e0       	ldi	r22, 0x05	; 5
     9d6:	4d e0       	ldi	r20, 0x0D	; 13
     9d8:	51 e0       	ldi	r21, 0x01	; 1
     9da:	0e 94 a1 06 	call	0xd42	; 0xd42 <GLCD_WriteStringXY>
	GLCD_Rectangle(0, 47, 70, 10);
     9de:	80 e0       	ldi	r24, 0x00	; 0
     9e0:	6f e2       	ldi	r22, 0x2F	; 47
     9e2:	46 e4       	ldi	r20, 0x46	; 70
     9e4:	2a e0       	ldi	r18, 0x0A	; 10
     9e6:	0e 94 ac 06 	call	0xd58	; 0xd58 <GLCD_Rectangle>



	//prostokat pierwszy prawa strona - V
	GLCD_WriteStringXY(92,0,"V (max:");
     9ea:	8c e5       	ldi	r24, 0x5C	; 92
     9ec:	60 e0       	ldi	r22, 0x00	; 0
     9ee:	42 e1       	ldi	r20, 0x12	; 18
     9f0:	51 e0       	ldi	r21, 0x01	; 1
     9f2:	0e 94 a1 06 	call	0xd42	; 0xd42 <GLCD_WriteStringXY>
	GLCD_WriteStringXY(154,0,")");
     9f6:	8a e9       	ldi	r24, 0x9A	; 154
     9f8:	60 e0       	ldi	r22, 0x00	; 0
     9fa:	a6 01       	movw	r20, r12
     9fc:	0e 94 a1 06 	call	0xd42	; 0xd42 <GLCD_WriteStringXY>

	char tab_max_speed[3];
	itoa(max_speed, tab_max_speed, 10); 
     a00:	8b 2d       	mov	r24, r11
     a02:	90 e0       	ldi	r25, 0x00	; 0
     a04:	8e 01       	movw	r16, r28
     a06:	0f 5f       	subi	r16, 0xFF	; 255
     a08:	1f 4f       	sbci	r17, 0xFF	; 255
     a0a:	b8 01       	movw	r22, r16
     a0c:	4a e0       	ldi	r20, 0x0A	; 10
     a0e:	50 e0       	ldi	r21, 0x00	; 0
     a10:	0e 94 7a 12 	call	0x24f4	; 0x24f4 <itoa>
	GLCD_WriteStringXY(136, 0, tab_max_speed);
     a14:	88 e8       	ldi	r24, 0x88	; 136
     a16:	60 e0       	ldi	r22, 0x00	; 0
     a18:	a8 01       	movw	r20, r16
     a1a:	0e 94 a1 06 	call	0xd42	; 0xd42 <GLCD_WriteStringXY>

	GLCD_Rectangle(92, 7, 70, 10);
     a1e:	8c e5       	ldi	r24, 0x5C	; 92
     a20:	67 e0       	ldi	r22, 0x07	; 7
     a22:	46 e4       	ldi	r20, 0x46	; 70
     a24:	2a e0       	ldi	r18, 0x0A	; 10
     a26:	0e 94 ac 06 	call	0xd58	; 0xd58 <GLCD_Rectangle>
	GLCD_Line(102, 17,102,19);
     a2a:	86 e6       	ldi	r24, 0x66	; 102
     a2c:	90 e0       	ldi	r25, 0x00	; 0
     a2e:	61 e1       	ldi	r22, 0x11	; 17
     a30:	70 e0       	ldi	r23, 0x00	; 0
     a32:	46 e6       	ldi	r20, 0x66	; 102
     a34:	50 e0       	ldi	r21, 0x00	; 0
     a36:	23 e1       	ldi	r18, 0x13	; 19
     a38:	30 e0       	ldi	r19, 0x00	; 0
     a3a:	0e 94 77 07 	call	0xeee	; 0xeee <GLCD_Line>
	GLCD_Line(112, 17,112,21);
     a3e:	80 e7       	ldi	r24, 0x70	; 112
     a40:	90 e0       	ldi	r25, 0x00	; 0
     a42:	61 e1       	ldi	r22, 0x11	; 17
     a44:	70 e0       	ldi	r23, 0x00	; 0
     a46:	40 e7       	ldi	r20, 0x70	; 112
     a48:	50 e0       	ldi	r21, 0x00	; 0
     a4a:	25 e1       	ldi	r18, 0x15	; 21
     a4c:	30 e0       	ldi	r19, 0x00	; 0
     a4e:	0e 94 77 07 	call	0xeee	; 0xeee <GLCD_Line>
	GLCD_Line(122, 17,122,19);
     a52:	8a e7       	ldi	r24, 0x7A	; 122
     a54:	90 e0       	ldi	r25, 0x00	; 0
     a56:	61 e1       	ldi	r22, 0x11	; 17
     a58:	70 e0       	ldi	r23, 0x00	; 0
     a5a:	4a e7       	ldi	r20, 0x7A	; 122
     a5c:	50 e0       	ldi	r21, 0x00	; 0
     a5e:	23 e1       	ldi	r18, 0x13	; 19
     a60:	30 e0       	ldi	r19, 0x00	; 0
     a62:	0e 94 77 07 	call	0xeee	; 0xeee <GLCD_Line>
	GLCD_Line(132, 17,132,21);
     a66:	84 e8       	ldi	r24, 0x84	; 132
     a68:	90 e0       	ldi	r25, 0x00	; 0
     a6a:	61 e1       	ldi	r22, 0x11	; 17
     a6c:	70 e0       	ldi	r23, 0x00	; 0
     a6e:	44 e8       	ldi	r20, 0x84	; 132
     a70:	50 e0       	ldi	r21, 0x00	; 0
     a72:	25 e1       	ldi	r18, 0x15	; 21
     a74:	30 e0       	ldi	r19, 0x00	; 0
     a76:	0e 94 77 07 	call	0xeee	; 0xeee <GLCD_Line>
	GLCD_Line(142, 17,142,19);
     a7a:	8e e8       	ldi	r24, 0x8E	; 142
     a7c:	90 e0       	ldi	r25, 0x00	; 0
     a7e:	61 e1       	ldi	r22, 0x11	; 17
     a80:	70 e0       	ldi	r23, 0x00	; 0
     a82:	4e e8       	ldi	r20, 0x8E	; 142
     a84:	50 e0       	ldi	r21, 0x00	; 0
     a86:	23 e1       	ldi	r18, 0x13	; 19
     a88:	30 e0       	ldi	r19, 0x00	; 0
     a8a:	0e 94 77 07 	call	0xeee	; 0xeee <GLCD_Line>
	GLCD_Line(152, 17,152,21);
     a8e:	88 e9       	ldi	r24, 0x98	; 152
     a90:	90 e0       	ldi	r25, 0x00	; 0
     a92:	61 e1       	ldi	r22, 0x11	; 17
     a94:	70 e0       	ldi	r23, 0x00	; 0
     a96:	48 e9       	ldi	r20, 0x98	; 152
     a98:	50 e0       	ldi	r21, 0x00	; 0
     a9a:	25 e1       	ldi	r18, 0x15	; 21
     a9c:	30 e0       	ldi	r19, 0x00	; 0
     a9e:	0e 94 77 07 	call	0xeee	; 0xeee <GLCD_Line>

	//ddrugi prostokat i napisy prawa strona



	GLCD_WriteStringXY(95,3,"TB:     st");
     aa2:	8f e5       	ldi	r24, 0x5F	; 95
     aa4:	63 e0       	ldi	r22, 0x03	; 3
     aa6:	4a e1       	ldi	r20, 0x1A	; 26
     aa8:	51 e0       	ldi	r21, 0x01	; 1
     aaa:	0e 94 a1 06 	call	0xd42	; 0xd42 <GLCD_WriteStringXY>
	char tab_temp_bms[3];
	itoa(temp_bms, tab_temp_bms, 10); 
     aae:	8e 01       	movw	r16, r28
     ab0:	0c 5f       	subi	r16, 0xFC	; 252
     ab2:	1f 4f       	sbci	r17, 0xFF	; 255
     ab4:	8a 2d       	mov	r24, r10
     ab6:	90 e0       	ldi	r25, 0x00	; 0
     ab8:	b8 01       	movw	r22, r16
     aba:	4a e0       	ldi	r20, 0x0A	; 10
     abc:	50 e0       	ldi	r21, 0x00	; 0
     abe:	0e 94 7a 12 	call	0x24f4	; 0x24f4 <itoa>
	GLCD_WriteStringXY(131, 3, tab_temp_bms);
     ac2:	83 e8       	ldi	r24, 0x83	; 131
     ac4:	63 e0       	ldi	r22, 0x03	; 3
     ac6:	a8 01       	movw	r20, r16
     ac8:	0e 94 a1 06 	call	0xd42	; 0xd42 <GLCD_WriteStringXY>

	GLCD_WriteStringXY(95,4,"TChl:   st");
     acc:	8f e5       	ldi	r24, 0x5F	; 95
     ace:	64 e0       	ldi	r22, 0x04	; 4
     ad0:	45 e2       	ldi	r20, 0x25	; 37
     ad2:	51 e0       	ldi	r21, 0x01	; 1
     ad4:	0e 94 a1 06 	call	0xd42	; 0xd42 <GLCD_WriteStringXY>
	char tab_temp_chl[3];
	itoa(temp_chl, tab_temp_chl, 10); 
     ad8:	8e 01       	movw	r16, r28
     ada:	09 5f       	subi	r16, 0xF9	; 249
     adc:	1f 4f       	sbci	r17, 0xFF	; 255
     ade:	88 2d       	mov	r24, r8
     ae0:	90 e0       	ldi	r25, 0x00	; 0
     ae2:	b8 01       	movw	r22, r16
     ae4:	4a e0       	ldi	r20, 0x0A	; 10
     ae6:	50 e0       	ldi	r21, 0x00	; 0
     ae8:	0e 94 7a 12 	call	0x24f4	; 0x24f4 <itoa>
	GLCD_WriteStringXY(131, 4, tab_temp_chl);
     aec:	83 e8       	ldi	r24, 0x83	; 131
     aee:	64 e0       	ldi	r22, 0x04	; 4
     af0:	a8 01       	movw	r20, r16
     af2:	0e 94 a1 06 	call	0xd42	; 0xd42 <GLCD_WriteStringXY>


	//tutaj komunikaty systemowe
	GLCD_WriteStringXY(95,5,"Sys:");
     af6:	8f e5       	ldi	r24, 0x5F	; 95
     af8:	65 e0       	ldi	r22, 0x05	; 5
     afa:	40 e3       	ldi	r20, 0x30	; 48
     afc:	51 e0       	ldi	r21, 0x01	; 1
     afe:	0e 94 a1 06 	call	0xd42	; 0xd42 <GLCD_WriteStringXY>

	GLCD_Rectangle(92, 22, 70, 40);
     b02:	8c e5       	ldi	r24, 0x5C	; 92
     b04:	66 e1       	ldi	r22, 0x16	; 22
     b06:	46 e4       	ldi	r20, 0x46	; 70
     b08:	28 e2       	ldi	r18, 0x28	; 40
     b0a:	0e 94 ac 06 	call	0xd58	; 0xd58 <GLCD_Rectangle>


}
     b0e:	61 96       	adiw	r28, 0x11	; 17
     b10:	0f b6       	in	r0, 0x3f	; 63
     b12:	f8 94       	cli
     b14:	de bf       	out	0x3e, r29	; 62
     b16:	0f be       	out	0x3f, r0	; 63
     b18:	cd bf       	out	0x3d, r28	; 61
     b1a:	cf 91       	pop	r28
     b1c:	df 91       	pop	r29
     b1e:	1f 91       	pop	r17
     b20:	0f 91       	pop	r16
     b22:	ff 90       	pop	r15
     b24:	ef 90       	pop	r14
     b26:	df 90       	pop	r13
     b28:	cf 90       	pop	r12
     b2a:	bf 90       	pop	r11
     b2c:	af 90       	pop	r10
     b2e:	8f 90       	pop	r8
     b30:	7f 90       	pop	r7
     b32:	6f 90       	pop	r6
     b34:	5f 90       	pop	r5
     b36:	4f 90       	pop	r4
     b38:	08 95       	ret

00000b3a <GLCD_ReadStatus>:
//-----------------------------------------------------------------------------
unsigned char GLCD_ReadStatus(void)
{
unsigned char tmp;

S1D15705_CTRLPORT &= ~(1 << S1D15705_CS);
     b3a:	c4 98       	cbi	0x18, 4	; 24
S1D15705_CTRLPORT &= ~(1 << S1D15705_A0);
     b3c:	c2 98       	cbi	0x18, 2	; 24
S1D15705_DATAPORT_DIR = 0x00;
     b3e:	1a ba       	out	0x1a, r1	; 26
S1D15705_CTRLPORT &= ~(1 << S1D15705_RD);
     b40:	c0 98       	cbi	0x18, 0	; 24
tmp = PINA;
     b42:	89 b3       	in	r24, 0x19	; 25
S1D15705_CTRLPORT |= (1 << S1D15705_RD);
     b44:	c0 9a       	sbi	0x18, 0	; 24
S1D15705_DATAPORT_DIR = 0xFF;
     b46:	9f ef       	ldi	r25, 0xFF	; 255
     b48:	9a bb       	out	0x1a, r25	; 26
S1D15705_CTRLPORT |= (1 << S1D15705_CS);
     b4a:	c4 9a       	sbi	0x18, 4	; 24
return tmp;
}
     b4c:	08 95       	ret

00000b4e <GLCD_WriteCommand>:
// Function for write command
//-----------------------------------------------------------------------------
void GLCD_WriteCommand(unsigned char CommandToWrite)
{
//while(GLCD_ReadStatus() & 0x80);
S1D15705_CTRLPORT &= ~(1 << S1D15705_CS);
     b4e:	c4 98       	cbi	0x18, 4	; 24
S1D15705_CTRLPORT &= ~(1 << S1D15705_A0);
     b50:	c2 98       	cbi	0x18, 2	; 24
S1D15705_DATAPORT = CommandToWrite;
     b52:	8b bb       	out	0x1b, r24	; 27
S1D15705_CTRLPORT &= ~(1 << S1D15705_WR);
     b54:	c1 98       	cbi	0x18, 1	; 24
	...
asm("nop");asm("nop");asm("nop");asm("nop");
S1D15705_CTRLPORT |= (1 << S1D15705_WR);
     b5e:	c1 9a       	sbi	0x18, 1	; 24
S1D15705_CTRLPORT |= (1 << S1D15705_CS);
     b60:	c4 9a       	sbi	0x18, 4	; 24
}
     b62:	08 95       	ret

00000b64 <GLCD_WriteData>:
// Function for write data
//-----------------------------------------------------------------------------
void GLCD_WriteData(unsigned char DataToWrite)
{
//while(GLCD_ReadStatus() & 0x80);
S1D15705_CTRLPORT &= ~(1 << S1D15705_CS);
     b64:	c4 98       	cbi	0x18, 4	; 24
S1D15705_CTRLPORT |= (1 << S1D15705_A0);
     b66:	c2 9a       	sbi	0x18, 2	; 24
S1D15705_DATAPORT = DataToWrite;
     b68:	8b bb       	out	0x1b, r24	; 27
S1D15705_CTRLPORT &= ~(1 << S1D15705_WR);
     b6a:	c1 98       	cbi	0x18, 1	; 24
	...
asm("nop");asm("nop");asm("nop");asm("nop");
S1D15705_CTRLPORT |= (1 << S1D15705_WR);
     b74:	c1 9a       	sbi	0x18, 1	; 24
S1D15705_CTRLPORT |= (1 << S1D15705_CS);
     b76:	c4 9a       	sbi	0x18, 4	; 24
}
     b78:	08 95       	ret

00000b7a <GLCD_ReadData>:
// FUnction for read data
//-----------------------------------------------------------------------------
unsigned char GLCD_ReadData(void)
{
unsigned char tmp;
S1D15705_CTRLPORT &= ~(1 << S1D15705_CS);
     b7a:	c4 98       	cbi	0x18, 4	; 24
S1D15705_CTRLPORT |= (1 << S1D15705_A0);
     b7c:	c2 9a       	sbi	0x18, 2	; 24
S1D15705_DATAPORT_DIR = 0x00;
     b7e:	1a ba       	out	0x1a, r1	; 26
S1D15705_CTRLPORT &= ~(1 << S1D15705_RD);
     b80:	c0 98       	cbi	0x18, 0	; 24
asm("nop");asm("nop");
     b82:	00 00       	nop
     b84:	00 00       	nop
S1D15705_CTRLPORT |= (1 << S1D15705_RD);
     b86:	c0 9a       	sbi	0x18, 0	; 24
asm("nop");asm("nop");
     b88:	00 00       	nop
     b8a:	00 00       	nop
S1D15705_CTRLPORT &= ~(1 << S1D15705_RD);
     b8c:	c0 98       	cbi	0x18, 0	; 24
asm("nop");asm("nop");
     b8e:	00 00       	nop
     b90:	00 00       	nop
tmp = PINA;
     b92:	89 b3       	in	r24, 0x19	; 25
S1D15705_CTRLPORT |= (1 << S1D15705_RD);
     b94:	c0 9a       	sbi	0x18, 0	; 24
S1D15705_CTRLPORT |= (1 << S1D15705_CS);
     b96:	c4 9a       	sbi	0x18, 4	; 24
S1D15705_DATAPORT_DIR = 0xFF;
     b98:	9f ef       	ldi	r25, 0xFF	; 255
     b9a:	9a bb       	out	0x1a, r25	; 26
return tmp;
}
     b9c:	08 95       	ret

00000b9e <GLCD_Initialize>:
// Function for display initializaton
//-----------------------------------------------------------------------------
void GLCD_Initialize(void)
{

S1D15705_CTRLPORT_DIR = 0xff;
     b9e:	8f ef       	ldi	r24, 0xFF	; 255
     ba0:	87 bb       	out	0x17, r24	; 23
S1D15705_DATAPORT_DIR = 0xff;
     ba2:	8a bb       	out	0x1a, r24	; 26

S1D15705_CTRLPORT &= ~(1 << S1D15705_RES);
     ba4:	c3 98       	cbi	0x18, 3	; 24
//_delay_ms(150);
S1D15705_CTRLPORT |= (1 << S1D15705_RES);
     ba6:	c3 9a       	sbi	0x18, 3	; 24

GLCD_WriteCommand(S1D15705_OSCON);
     ba8:	8b ea       	ldi	r24, 0xAB	; 171
     baa:	0e 94 a7 05 	call	0xb4e	; 0xb4e <GLCD_WriteCommand>
//_delay_ms(50);
GLCD_WriteCommand(S1D15705_LCDBIASSET | 0);
     bae:	82 ea       	ldi	r24, 0xA2	; 162
     bb0:	0e 94 a7 05 	call	0xb4e	; 0xb4e <GLCD_WriteCommand>
GLCD_WriteCommand(S1D15705_ADCSELECT);
     bb4:	80 ea       	ldi	r24, 0xA0	; 160
     bb6:	0e 94 a7 05 	call	0xb4e	; 0xb4e <GLCD_WriteCommand>
GLCD_WriteCommand(S1D15705_COMMONSTATE  | 0x08);
     bba:	88 ec       	ldi	r24, 0xC8	; 200
     bbc:	0e 94 a7 05 	call	0xb4e	; 0xb4e <GLCD_WriteCommand>

GLCD_WriteCommand(S1D15705_V5ADJ | 5);
     bc0:	85 e2       	ldi	r24, 0x25	; 37
     bc2:	0e 94 a7 05 	call	0xb4e	; 0xb4e <GLCD_WriteCommand>

GLCD_WriteCommand(S1D15705_ELECTRONICCTRL);
     bc6:	81 e8       	ldi	r24, 0x81	; 129
     bc8:	0e 94 a7 05 	call	0xb4e	; 0xb4e <GLCD_WriteCommand>
GLCD_WriteCommand(42);
     bcc:	8a e2       	ldi	r24, 0x2A	; 42
     bce:	0e 94 a7 05 	call	0xb4e	; 0xb4e <GLCD_WriteCommand>

GLCD_WriteCommand(S1D15705_POWERCTRL | 1);
     bd2:	89 e2       	ldi	r24, 0x29	; 41
     bd4:	0e 94 a7 05 	call	0xb4e	; 0xb4e <GLCD_WriteCommand>
//_delay_ms(50);
GLCD_WriteCommand(S1D15705_POWERCTRL | 3);
     bd8:	8b e2       	ldi	r24, 0x2B	; 43
     bda:	0e 94 a7 05 	call	0xb4e	; 0xb4e <GLCD_WriteCommand>
//_delay_ms(50);
GLCD_WriteCommand(S1D15705_POWERCTRL | 7);
     bde:	8f e2       	ldi	r24, 0x2F	; 47
     be0:	0e 94 a7 05 	call	0xb4e	; 0xb4e <GLCD_WriteCommand>
//_delay_ms(50);
GLCD_WriteCommand(S1D15705_DISPONOFF | DISP_ON);
     be4:	8f ea       	ldi	r24, 0xAF	; 175
     be6:	0e 94 a7 05 	call	0xb4e	; 0xb4e <GLCD_WriteCommand>

GLCD_WriteCommand(S1D15705_DISPLAYSTARTLINE);
     bea:	80 e4       	ldi	r24, 0x40	; 64
     bec:	0e 94 a7 05 	call	0xb4e	; 0xb4e <GLCD_WriteCommand>
GLCD_WriteCommand(S1D15705_DISPLAYNORMAL | 1);
     bf0:	87 ea       	ldi	r24, 0xA7	; 167
     bf2:	0e 94 a7 05 	call	0xb4e	; 0xb4e <GLCD_WriteCommand>

}
     bf6:	08 95       	ret

00000bf8 <GLCD_GoTo>:
}
//-----------------------------------------------------------------------------
// Function for set display coordinates
//-----------------------------------------------------------------------------
void GLCD_GoTo(unsigned char x, unsigned char y)
{
     bf8:	1f 93       	push	r17
x += 3;
     bfa:	18 2f       	mov	r17, r24
     bfc:	1d 5f       	subi	r17, 0xFD	; 253
GLCD_WriteCommand(S1D15705_PAGEADDRESSSET | y);
     bfe:	86 2f       	mov	r24, r22
     c00:	80 6b       	ori	r24, 0xB0	; 176
     c02:	0e 94 a7 05 	call	0xb4e	; 0xb4e <GLCD_WriteCommand>
GLCD_WriteCommand(S1D15705_COLUMNADDRESSSET | ((x >> 4) & 0x0F));
     c06:	81 2f       	mov	r24, r17
     c08:	82 95       	swap	r24
     c0a:	8f 70       	andi	r24, 0x0F	; 15
     c0c:	80 61       	ori	r24, 0x10	; 16
     c0e:	0e 94 a7 05 	call	0xb4e	; 0xb4e <GLCD_WriteCommand>
GLCD_WriteCommand(x & 0x0F);
     c12:	81 2f       	mov	r24, r17
     c14:	8f 70       	andi	r24, 0x0F	; 15
     c16:	0e 94 a7 05 	call	0xb4e	; 0xb4e <GLCD_WriteCommand>
}
     c1a:	1f 91       	pop	r17
     c1c:	08 95       	ret

00000c1e <GLCD_Clear>:
}
//-----------------------------------------------------------------------------
// Function for clear display memory
//-----------------------------------------------------------------------------
void GLCD_Clear(void)
{
     c1e:	0f 93       	push	r16
     c20:	1f 93       	push	r17
     c22:	cf 93       	push	r28
     c24:	df 93       	push	r29
int x, y;

for(y = 0; y < 9; y++)
     c26:	c0 e0       	ldi	r28, 0x00	; 0
     c28:	d0 e0       	ldi	r29, 0x00	; 0
{
GLCD_GoTo(0, y);
     c2a:	80 e0       	ldi	r24, 0x00	; 0
     c2c:	6c 2f       	mov	r22, r28
     c2e:	0e 94 fc 05 	call	0xbf8	; 0xbf8 <GLCD_GoTo>
     c32:	04 ea       	ldi	r16, 0xA4	; 164
     c34:	10 e0       	ldi	r17, 0x00	; 0
for(x = 0; x < 164; x++)
  {
  GLCD_WriteData(0x00);
     c36:	80 e0       	ldi	r24, 0x00	; 0
     c38:	0e 94 b2 05 	call	0xb64	; 0xb64 <GLCD_WriteData>
	#else
		//round up by default
		__ticks_dc = (uint32_t)(ceil(fabs(__tmp)));
	#endif

	__builtin_avr_delay_cycles(__ticks_dc);
     c3c:	35 e3       	ldi	r19, 0x35	; 53
     c3e:	3a 95       	dec	r19
     c40:	f1 f7       	brne	.-4      	; 0xc3e <GLCD_Clear+0x20>
     c42:	00 00       	nop
     c44:	01 50       	subi	r16, 0x01	; 1
     c46:	10 40       	sbci	r17, 0x00	; 0
int x, y;

for(y = 0; y < 9; y++)
{
GLCD_GoTo(0, y);
for(x = 0; x < 164; x++)
     c48:	b1 f7       	brne	.-20     	; 0xc36 <GLCD_Clear+0x18>
//-----------------------------------------------------------------------------
void GLCD_Clear(void)
{
int x, y;

for(y = 0; y < 9; y++)
     c4a:	21 96       	adiw	r28, 0x01	; 1
     c4c:	c9 30       	cpi	r28, 0x09	; 9
     c4e:	d1 05       	cpc	r29, r1
     c50:	61 f7       	brne	.-40     	; 0xc2a <GLCD_Clear+0xc>
  {
  GLCD_WriteData(0x00);
  _delay_us(10);
  }
}
}
     c52:	df 91       	pop	r29
     c54:	cf 91       	pop	r28
     c56:	1f 91       	pop	r17
     c58:	0f 91       	pop	r16
     c5a:	08 95       	ret

00000c5c <GLCD_SetPixel>:
}
//-----------------------------------------------------------------------------
// Function for setting pixel
//-----------------------------------------------------------------------------
void GLCD_SetPixel(unsigned char x, unsigned char y, unsigned char color)
{
     c5c:	ff 92       	push	r15
     c5e:	0f 93       	push	r16
     c60:	1f 93       	push	r17
     c62:	df 93       	push	r29
     c64:	cf 93       	push	r28
     c66:	0f 92       	push	r0
     c68:	cd b7       	in	r28, 0x3d	; 61
     c6a:	de b7       	in	r29, 0x3e	; 62
     c6c:	18 2f       	mov	r17, r24
     c6e:	06 2f       	mov	r16, r22
unsigned char tmp;
GLCD_GoTo((unsigned char)x, (unsigned char)(y/8));
     c70:	f6 2e       	mov	r15, r22
     c72:	f6 94       	lsr	r15
     c74:	f6 94       	lsr	r15
     c76:	f6 94       	lsr	r15
     c78:	6f 2d       	mov	r22, r15
     c7a:	49 83       	std	Y+1, r20	; 0x01
     c7c:	0e 94 fc 05 	call	0xbf8	; 0xbf8 <GLCD_GoTo>
tmp = GLCD_ReadData();
     c80:	0e 94 bd 05 	call	0xb7a	; 0xb7a <GLCD_ReadData>
     c84:	20 2f       	mov	r18, r16
     c86:	30 e0       	ldi	r19, 0x00	; 0
if(color)
     c88:	49 81       	ldd	r20, Y+1	; 0x01
     c8a:	44 23       	and	r20, r20
     c8c:	61 f0       	breq	.+24     	; 0xca6 <GLCD_SetPixel+0x4a>
	tmp |= (1 << (y%8));
     c8e:	a9 01       	movw	r20, r18
     c90:	47 70       	andi	r20, 0x07	; 7
     c92:	50 70       	andi	r21, 0x00	; 0
     c94:	21 e0       	ldi	r18, 0x01	; 1
     c96:	30 e0       	ldi	r19, 0x00	; 0
     c98:	02 c0       	rjmp	.+4      	; 0xc9e <GLCD_SetPixel+0x42>
     c9a:	22 0f       	add	r18, r18
     c9c:	33 1f       	adc	r19, r19
     c9e:	4a 95       	dec	r20
     ca0:	e2 f7       	brpl	.-8      	; 0xc9a <GLCD_SetPixel+0x3e>
     ca2:	28 2b       	or	r18, r24
     ca4:	0c c0       	rjmp	.+24     	; 0xcbe <GLCD_SetPixel+0x62>
else
	tmp &= ~(1 << (y%8));
     ca6:	a9 01       	movw	r20, r18
     ca8:	47 70       	andi	r20, 0x07	; 7
     caa:	50 70       	andi	r21, 0x00	; 0
     cac:	21 e0       	ldi	r18, 0x01	; 1
     cae:	30 e0       	ldi	r19, 0x00	; 0
     cb0:	02 c0       	rjmp	.+4      	; 0xcb6 <GLCD_SetPixel+0x5a>
     cb2:	22 0f       	add	r18, r18
     cb4:	33 1f       	adc	r19, r19
     cb6:	4a 95       	dec	r20
     cb8:	e2 f7       	brpl	.-8      	; 0xcb2 <GLCD_SetPixel+0x56>
     cba:	20 95       	com	r18
     cbc:	28 23       	and	r18, r24
GLCD_GoTo(x, y/8);
     cbe:	81 2f       	mov	r24, r17
     cc0:	6f 2d       	mov	r22, r15
     cc2:	29 83       	std	Y+1, r18	; 0x01
     cc4:	0e 94 fc 05 	call	0xbf8	; 0xbf8 <GLCD_GoTo>
GLCD_WriteData(tmp);
     cc8:	29 81       	ldd	r18, Y+1	; 0x01
     cca:	82 2f       	mov	r24, r18
     ccc:	0e 94 b2 05 	call	0xb64	; 0xb64 <GLCD_WriteData>
}
     cd0:	0f 90       	pop	r0
     cd2:	cf 91       	pop	r28
     cd4:	df 91       	pop	r29
     cd6:	1f 91       	pop	r17
     cd8:	0f 91       	pop	r16
     cda:	ff 90       	pop	r15
     cdc:	08 95       	ret

00000cde <GLCD_WriteChar>:
}
//-----------------------------------------------------------------------------
// Function for write character to display memory
//-----------------------------------------------------------------------------
void GLCD_WriteChar(char x)
{
     cde:	0f 93       	push	r16
     ce0:	1f 93       	push	r17
     ce2:	cf 93       	push	r28
     ce4:	df 93       	push	r29
char i; 
x -= 32; 
     ce6:	80 52       	subi	r24, 0x20	; 32
for(i = 0; i < 5; i++) 
  GLCD_WriteData(pgm_read_byte(font5x8 + (5 * x) + i)); 
     ce8:	95 e0       	ldi	r25, 0x05	; 5
     cea:	89 9f       	mul	r24, r25
     cec:	e0 01       	movw	r28, r0
     cee:	11 24       	eor	r1, r1
GLCD_WriteCommand(x & 0x0F);
}
//-----------------------------------------------------------------------------
// Function for write character to display memory
//-----------------------------------------------------------------------------
void GLCD_WriteChar(char x)
     cf0:	8e 01       	movw	r16, r28
     cf2:	0b 5f       	subi	r16, 0xFB	; 251
     cf4:	1f 4f       	sbci	r17, 0xFF	; 255
{
char i; 
x -= 32; 
for(i = 0; i < 5; i++) 
  GLCD_WriteData(pgm_read_byte(font5x8 + (5 * x) + i)); 
     cf6:	fe 01       	movw	r30, r28
     cf8:	e4 57       	subi	r30, 0x74	; 116
     cfa:	ff 4f       	sbci	r31, 0xFF	; 255
     cfc:	84 91       	lpm	r24, Z+
     cfe:	0e 94 b2 05 	call	0xb64	; 0xb64 <GLCD_WriteData>
     d02:	21 96       	adiw	r28, 0x01	; 1
//-----------------------------------------------------------------------------
void GLCD_WriteChar(char x)
{
char i; 
x -= 32; 
for(i = 0; i < 5; i++) 
     d04:	c0 17       	cp	r28, r16
     d06:	d1 07       	cpc	r29, r17
     d08:	b1 f7       	brne	.-20     	; 0xcf6 <GLCD_WriteChar+0x18>
  GLCD_WriteData(pgm_read_byte(font5x8 + (5 * x) + i)); 
GLCD_WriteData(0x00); 
     d0a:	80 e0       	ldi	r24, 0x00	; 0
     d0c:	0e 94 b2 05 	call	0xb64	; 0xb64 <GLCD_WriteData>
}
     d10:	df 91       	pop	r29
     d12:	cf 91       	pop	r28
     d14:	1f 91       	pop	r17
     d16:	0f 91       	pop	r16
     d18:	08 95       	ret

00000d1a <GLCD_WriteString>:
//-----------------------------------------------------------------------------
// Function for write string to display memory
//-----------------------------------------------------------------------------
void GLCD_WriteString(char * s)
{
     d1a:	ef 92       	push	r14
     d1c:	ff 92       	push	r15
     d1e:	cf 93       	push	r28
     d20:	df 93       	push	r29
     d22:	e8 2e       	mov	r14, r24
     d24:	e7 01       	movw	r28, r14
     d26:	7e 01       	movw	r14, r28
     d28:	f9 2e       	mov	r15, r25
     d2a:	e7 01       	movw	r28, r14
while(*s)
     d2c:	02 c0       	rjmp	.+4      	; 0xd32 <GLCD_WriteString+0x18>
  {
  GLCD_WriteChar(*s++);
     d2e:	0e 94 6f 06 	call	0xcde	; 0xcde <GLCD_WriteChar>
//-----------------------------------------------------------------------------
// Function for write string to display memory
//-----------------------------------------------------------------------------
void GLCD_WriteString(char * s)
{
while(*s)
     d32:	89 91       	ld	r24, Y+
     d34:	88 23       	and	r24, r24
     d36:	d9 f7       	brne	.-10     	; 0xd2e <GLCD_WriteString+0x14>
  {
  GLCD_WriteChar(*s++);
  }
}
     d38:	df 91       	pop	r29
     d3a:	cf 91       	pop	r28
     d3c:	ff 90       	pop	r15
     d3e:	ef 90       	pop	r14
     d40:	08 95       	ret

00000d42 <GLCD_WriteStringXY>:
//-----------------------------------------------------------------------------
// Function for wirte string at specified coordinates
//-----------------------------------------------------------------------------
void GLCD_WriteStringXY(unsigned char x, unsigned char y, char * str)
{
     d42:	cf 93       	push	r28
     d44:	df 93       	push	r29
     d46:	ea 01       	movw	r28, r20
GLCD_GoTo(x,y);
     d48:	0e 94 fc 05 	call	0xbf8	; 0xbf8 <GLCD_GoTo>
GLCD_WriteString(str);
     d4c:	ce 01       	movw	r24, r28
     d4e:	0e 94 8d 06 	call	0xd1a	; 0xd1a <GLCD_WriteString>
}
     d52:	df 91       	pop	r29
     d54:	cf 91       	pop	r28
     d56:	08 95       	ret

00000d58 <GLCD_Rectangle>:
extern void GLCD_SetPixel(char x, char y, char color);

const char color = 1;

void GLCD_Rectangle(unsigned char x, unsigned char y, unsigned char b, unsigned char a)
{
     d58:	cf 92       	push	r12
     d5a:	df 92       	push	r13
     d5c:	ef 92       	push	r14
     d5e:	ff 92       	push	r15
     d60:	0f 93       	push	r16
     d62:	1f 93       	push	r17
     d64:	df 93       	push	r29
     d66:	cf 93       	push	r28
     d68:	0f 92       	push	r0
     d6a:	cd b7       	in	r28, 0x3d	; 61
     d6c:	de b7       	in	r29, 0x3e	; 62
     d6e:	08 2f       	mov	r16, r24
     d70:	16 2f       	mov	r17, r22
     d72:	f4 2e       	mov	r15, r20
  unsigned char j; // zmienna pomocnicza
  // rysowanie linii pionowych (boki)
  for (j = 0; j < a; j++) {
     d74:	ee 24       	eor	r14, r14
		GLCD_SetPixel(x, y + j, color);
		GLCD_SetPixel(x + b - 1, y + j, color);
     d76:	d8 2e       	mov	r13, r24
     d78:	da 94       	dec	r13
     d7a:	d4 0e       	add	r13, r20

void GLCD_Rectangle(unsigned char x, unsigned char y, unsigned char b, unsigned char a)
{
  unsigned char j; // zmienna pomocnicza
  // rysowanie linii pionowych (boki)
  for (j = 0; j < a; j++) {
     d7c:	0f c0       	rjmp	.+30     	; 0xd9c <GLCD_Rectangle+0x44>
     d7e:	ce 2c       	mov	r12, r14
     d80:	c1 0e       	add	r12, r17
		GLCD_SetPixel(x, y + j, color);
     d82:	80 2f       	mov	r24, r16
     d84:	6c 2d       	mov	r22, r12
     d86:	41 e0       	ldi	r20, 0x01	; 1
     d88:	29 83       	std	Y+1, r18	; 0x01
     d8a:	0e 94 2e 06 	call	0xc5c	; 0xc5c <GLCD_SetPixel>
		GLCD_SetPixel(x + b - 1, y + j, color);
     d8e:	8d 2d       	mov	r24, r13
     d90:	6c 2d       	mov	r22, r12
     d92:	41 e0       	ldi	r20, 0x01	; 1
     d94:	0e 94 2e 06 	call	0xc5c	; 0xc5c <GLCD_SetPixel>

void GLCD_Rectangle(unsigned char x, unsigned char y, unsigned char b, unsigned char a)
{
  unsigned char j; // zmienna pomocnicza
  // rysowanie linii pionowych (boki)
  for (j = 0; j < a; j++) {
     d98:	e3 94       	inc	r14
     d9a:	29 81       	ldd	r18, Y+1	; 0x01
     d9c:	e2 16       	cp	r14, r18
     d9e:	78 f3       	brcs	.-34     	; 0xd7e <GLCD_Rectangle+0x26>
     da0:	ee 24       	eor	r14, r14
		GLCD_SetPixel(x + b - 1, y + j, color);
	}
  // rysowanie linii poziomych (podstawy)
  for (j = 0; j < b; j++)	{
		GLCD_SetPixel(x + j, y, color);
		GLCD_SetPixel(x + j, y + a - 1, color);
     da2:	d1 2e       	mov	r13, r17
     da4:	da 94       	dec	r13
     da6:	d2 0e       	add	r13, r18
     da8:	0d c0       	rjmp	.+26     	; 0xdc4 <GLCD_Rectangle+0x6c>

void GLCD_Rectangle(unsigned char x, unsigned char y, unsigned char b, unsigned char a)
{
  unsigned char j; // zmienna pomocnicza
  // rysowanie linii pionowych (boki)
  for (j = 0; j < a; j++) {
     daa:	ce 2c       	mov	r12, r14
     dac:	c0 0e       	add	r12, r16
		GLCD_SetPixel(x, y + j, color);
		GLCD_SetPixel(x + b - 1, y + j, color);
	}
  // rysowanie linii poziomych (podstawy)
  for (j = 0; j < b; j++)	{
		GLCD_SetPixel(x + j, y, color);
     dae:	8c 2d       	mov	r24, r12
     db0:	61 2f       	mov	r22, r17
     db2:	41 e0       	ldi	r20, 0x01	; 1
     db4:	0e 94 2e 06 	call	0xc5c	; 0xc5c <GLCD_SetPixel>
		GLCD_SetPixel(x + j, y + a - 1, color);
     db8:	8c 2d       	mov	r24, r12
     dba:	6d 2d       	mov	r22, r13
     dbc:	41 e0       	ldi	r20, 0x01	; 1
     dbe:	0e 94 2e 06 	call	0xc5c	; 0xc5c <GLCD_SetPixel>
  for (j = 0; j < a; j++) {
		GLCD_SetPixel(x, y + j, color);
		GLCD_SetPixel(x + b - 1, y + j, color);
	}
  // rysowanie linii poziomych (podstawy)
  for (j = 0; j < b; j++)	{
     dc2:	e3 94       	inc	r14
     dc4:	ef 14       	cp	r14, r15
     dc6:	88 f3       	brcs	.-30     	; 0xdaa <GLCD_Rectangle+0x52>
		GLCD_SetPixel(x + j, y, color);
		GLCD_SetPixel(x + j, y + a - 1, color);
	}
}
     dc8:	0f 90       	pop	r0
     dca:	cf 91       	pop	r28
     dcc:	df 91       	pop	r29
     dce:	1f 91       	pop	r17
     dd0:	0f 91       	pop	r16
     dd2:	ff 90       	pop	r15
     dd4:	ef 90       	pop	r14
     dd6:	df 90       	pop	r13
     dd8:	cf 90       	pop	r12
     dda:	08 95       	ret

00000ddc <GLCD_Circle>:


void GLCD_Circle(unsigned char cx, unsigned char cy ,unsigned char radius)
{
     ddc:	2f 92       	push	r2
     dde:	3f 92       	push	r3
     de0:	5f 92       	push	r5
     de2:	6f 92       	push	r6
     de4:	7f 92       	push	r7
     de6:	8f 92       	push	r8
     de8:	9f 92       	push	r9
     dea:	af 92       	push	r10
     dec:	bf 92       	push	r11
     dee:	cf 92       	push	r12
     df0:	df 92       	push	r13
     df2:	ef 92       	push	r14
     df4:	ff 92       	push	r15
     df6:	0f 93       	push	r16
     df8:	1f 93       	push	r17
     dfa:	cf 93       	push	r28
     dfc:	df 93       	push	r29
     dfe:	a8 2e       	mov	r10, r24
     e00:	b6 2e       	mov	r11, r22
int x, y, xchange, ychange, radiusError;
x = radius;
     e02:	e4 2e       	mov	r14, r20
     e04:	ff 24       	eor	r15, r15
y = 0;
xchange = 1 - 2 * radius;
     e06:	cc 27       	eor	r28, r28
     e08:	dd 27       	eor	r29, r29
     e0a:	ce 19       	sub	r28, r14
     e0c:	df 09       	sbc	r29, r15
     e0e:	cc 0f       	add	r28, r28
     e10:	dd 1f       	adc	r29, r29
     e12:	21 96       	adiw	r28, 0x01	; 1
ychange = 1;
radiusError = 0;
     e14:	00 e0       	ldi	r16, 0x00	; 0
     e16:	10 e0       	ldi	r17, 0x00	; 0
{
int x, y, xchange, ychange, radiusError;
x = radius;
y = 0;
xchange = 1 - 2 * radius;
ychange = 1;
     e18:	31 e0       	ldi	r19, 0x01	; 1
     e1a:	23 2e       	mov	r2, r19
     e1c:	31 2c       	mov	r3, r1

void GLCD_Circle(unsigned char cx, unsigned char cy ,unsigned char radius)
{
int x, y, xchange, ychange, radiusError;
x = radius;
y = 0;
     e1e:	cc 24       	eor	r12, r12
     e20:	dd 24       	eor	r13, r13
xchange = 1 - 2 * radius;
ychange = 1;
radiusError = 0;
while(x >= y)
  {
  GLCD_SetPixel(cx+x, cy+y, color); 
     e22:	5e 2c       	mov	r5, r14
     e24:	5a 0c       	add	r5, r10
		GLCD_SetPixel(x + j, y + a - 1, color);
	}
}


void GLCD_Circle(unsigned char cx, unsigned char cy ,unsigned char radius)
     e26:	7c 2c       	mov	r7, r12
     e28:	7b 0c       	add	r7, r11
xchange = 1 - 2 * radius;
ychange = 1;
radiusError = 0;
while(x >= y)
  {
  GLCD_SetPixel(cx+x, cy+y, color); 
     e2a:	85 2d       	mov	r24, r5
     e2c:	67 2d       	mov	r22, r7
     e2e:	41 e0       	ldi	r20, 0x01	; 1
     e30:	0e 94 2e 06 	call	0xc5c	; 0xc5c <GLCD_SetPixel>
  GLCD_SetPixel(cx-x, cy+y, color); 
     e34:	6a 2c       	mov	r6, r10
     e36:	6e 18       	sub	r6, r14
     e38:	86 2d       	mov	r24, r6
     e3a:	67 2d       	mov	r22, r7
     e3c:	41 e0       	ldi	r20, 0x01	; 1
     e3e:	0e 94 2e 06 	call	0xc5c	; 0xc5c <GLCD_SetPixel>
     e42:	7b 2c       	mov	r7, r11
     e44:	7c 18       	sub	r7, r12
  GLCD_SetPixel(cx-x, cy-y, color);
     e46:	86 2d       	mov	r24, r6
     e48:	67 2d       	mov	r22, r7
     e4a:	41 e0       	ldi	r20, 0x01	; 1
     e4c:	0e 94 2e 06 	call	0xc5c	; 0xc5c <GLCD_SetPixel>
  GLCD_SetPixel(cx+x, cy-y, color); 
     e50:	85 2d       	mov	r24, r5
     e52:	67 2d       	mov	r22, r7
     e54:	41 e0       	ldi	r20, 0x01	; 1
     e56:	0e 94 2e 06 	call	0xc5c	; 0xc5c <GLCD_SetPixel>
     e5a:	7c 2c       	mov	r7, r12
     e5c:	7a 0c       	add	r7, r10
  GLCD_SetPixel(cx+y, cy+x, color); 
     e5e:	6e 2c       	mov	r6, r14
     e60:	6b 0c       	add	r6, r11
     e62:	87 2d       	mov	r24, r7
     e64:	66 2d       	mov	r22, r6
     e66:	41 e0       	ldi	r20, 0x01	; 1
     e68:	0e 94 2e 06 	call	0xc5c	; 0xc5c <GLCD_SetPixel>
     e6c:	8a 2d       	mov	r24, r10
     e6e:	8c 19       	sub	r24, r12
     e70:	88 2e       	mov	r8, r24
  GLCD_SetPixel(cx-y, cy+x, color); 
     e72:	66 2d       	mov	r22, r6
     e74:	41 e0       	ldi	r20, 0x01	; 1
     e76:	0e 94 2e 06 	call	0xc5c	; 0xc5c <GLCD_SetPixel>
  GLCD_SetPixel(cx-y, cy-x, color); 
     e7a:	9b 2d       	mov	r25, r11
     e7c:	9e 19       	sub	r25, r14
     e7e:	99 2e       	mov	r9, r25
     e80:	88 2d       	mov	r24, r8
     e82:	69 2f       	mov	r22, r25
     e84:	41 e0       	ldi	r20, 0x01	; 1
     e86:	0e 94 2e 06 	call	0xc5c	; 0xc5c <GLCD_SetPixel>
  GLCD_SetPixel(cx+y, cy-x, color); 
     e8a:	87 2d       	mov	r24, r7
     e8c:	69 2d       	mov	r22, r9
     e8e:	41 e0       	ldi	r20, 0x01	; 1
     e90:	0e 94 2e 06 	call	0xc5c	; 0xc5c <GLCD_SetPixel>
  y++;
     e94:	08 94       	sec
     e96:	c1 1c       	adc	r12, r1
     e98:	d1 1c       	adc	r13, r1
  radiusError += ychange;
     e9a:	02 0d       	add	r16, r2
     e9c:	13 1d       	adc	r17, r3
  ychange += 2;
     e9e:	82 e0       	ldi	r24, 0x02	; 2
     ea0:	90 e0       	ldi	r25, 0x00	; 0
     ea2:	28 0e       	add	r2, r24
     ea4:	39 1e       	adc	r3, r25
  if ( 2*radiusError + xchange > 0 )
     ea6:	c8 01       	movw	r24, r16
     ea8:	88 0f       	add	r24, r24
     eaa:	99 1f       	adc	r25, r25
     eac:	8c 0f       	add	r24, r28
     eae:	9d 1f       	adc	r25, r29
     eb0:	18 16       	cp	r1, r24
     eb2:	19 06       	cpc	r1, r25
     eb4:	34 f4       	brge	.+12     	; 0xec2 <GLCD_Circle+0xe6>
    {
    x--;
     eb6:	08 94       	sec
     eb8:	e1 08       	sbc	r14, r1
     eba:	f1 08       	sbc	r15, r1
	radiusError += xchange;
     ebc:	0c 0f       	add	r16, r28
     ebe:	1d 1f       	adc	r17, r29
	xchange += 2;
     ec0:	22 96       	adiw	r28, 0x02	; 2
x = radius;
y = 0;
xchange = 1 - 2 * radius;
ychange = 1;
radiusError = 0;
while(x >= y)
     ec2:	ec 14       	cp	r14, r12
     ec4:	fd 04       	cpc	r15, r13
     ec6:	0c f0       	brlt	.+2      	; 0xeca <GLCD_Circle+0xee>
     ec8:	ac cf       	rjmp	.-168    	; 0xe22 <GLCD_Circle+0x46>
    x--;
	radiusError += xchange;
	xchange += 2;
	}
  }
}
     eca:	df 91       	pop	r29
     ecc:	cf 91       	pop	r28
     ece:	1f 91       	pop	r17
     ed0:	0f 91       	pop	r16
     ed2:	ff 90       	pop	r15
     ed4:	ef 90       	pop	r14
     ed6:	df 90       	pop	r13
     ed8:	cf 90       	pop	r12
     eda:	bf 90       	pop	r11
     edc:	af 90       	pop	r10
     ede:	9f 90       	pop	r9
     ee0:	8f 90       	pop	r8
     ee2:	7f 90       	pop	r7
     ee4:	6f 90       	pop	r6
     ee6:	5f 90       	pop	r5
     ee8:	3f 90       	pop	r3
     eea:	2f 90       	pop	r2
     eec:	08 95       	ret

00000eee <GLCD_Line>:


void GLCD_Line(int X1, int Y1,int X2,int Y2)
{
     eee:	2f 92       	push	r2
     ef0:	3f 92       	push	r3
     ef2:	4f 92       	push	r4
     ef4:	5f 92       	push	r5
     ef6:	6f 92       	push	r6
     ef8:	7f 92       	push	r7
     efa:	8f 92       	push	r8
     efc:	9f 92       	push	r9
     efe:	af 92       	push	r10
     f00:	bf 92       	push	r11
     f02:	cf 92       	push	r12
     f04:	df 92       	push	r13
     f06:	ef 92       	push	r14
     f08:	ff 92       	push	r15
     f0a:	0f 93       	push	r16
     f0c:	1f 93       	push	r17
     f0e:	df 93       	push	r29
     f10:	cf 93       	push	r28
     f12:	00 d0       	rcall	.+0      	; 0xf14 <GLCD_Line+0x26>
     f14:	00 d0       	rcall	.+0      	; 0xf16 <GLCD_Line+0x28>
     f16:	00 d0       	rcall	.+0      	; 0xf18 <GLCD_Line+0x2a>
     f18:	cd b7       	in	r28, 0x3d	; 61
     f1a:	de b7       	in	r29, 0x3e	; 62
     f1c:	3c 01       	movw	r6, r24
     f1e:	4b 01       	movw	r8, r22
     f20:	5a 83       	std	Y+2, r21	; 0x02
     f22:	49 83       	std	Y+1, r20	; 0x01
     f24:	3c 83       	std	Y+4, r19	; 0x04
     f26:	2b 83       	std	Y+3, r18	; 0x03
int CurrentX, CurrentY, Xinc, Yinc, 
    Dx, Dy, TwoDx, TwoDy, 
	TwoDxAccumulatedError, TwoDyAccumulatedError;

Dx = (X2-X1); // obliczenie sk³adowej poziomej
     f28:	9a 01       	movw	r18, r20
     f2a:	28 1b       	sub	r18, r24
     f2c:	39 0b       	sbc	r19, r25
     f2e:	3e 83       	std	Y+6, r19	; 0x06
     f30:	2d 83       	std	Y+5, r18	; 0x05
Dy = (Y2-Y1); // obliczenie sk³adowej pionowej
     f32:	0b 81       	ldd	r16, Y+3	; 0x03
     f34:	1c 81       	ldd	r17, Y+4	; 0x04
     f36:	06 1b       	sub	r16, r22
     f38:	17 0b       	sbc	r17, r23

TwoDx = Dx + Dx; // podwojona sk³adowa pozioma
     f3a:	19 01       	movw	r2, r18
     f3c:	22 0c       	add	r2, r2
     f3e:	33 1c       	adc	r3, r3
TwoDy = Dy + Dy; // podwojona sk³adowa pionowa
     f40:	28 01       	movw	r4, r16
     f42:	44 0c       	add	r4, r4
     f44:	55 1c       	adc	r5, r5
CurrentY = Y1; // oraz Y1

Xinc = 1; // ustalamy krok zwiêkszania pozycji w poziomie 
Yinc = 1; // ustalamy krok zwiêkszania pozycji w pionie

if(Dx < 0) // jesli sk³adowa pozioma jest ujemna 
     f46:	37 ff       	sbrs	r19, 7
     f48:	0d c0       	rjmp	.+26     	; 0xf64 <GLCD_Line+0x76>
  {
  Xinc = -1; // to bêdziemy siê "cofaæ" (krok ujemny)
  Dx = -Dx;  // zmieniamy znak sk³adowej na dodatni
     f4a:	30 95       	com	r19
     f4c:	21 95       	neg	r18
     f4e:	3f 4f       	sbci	r19, 0xFF	; 255
     f50:	3e 83       	std	Y+6, r19	; 0x06
     f52:	2d 83       	std	Y+5, r18	; 0x05
  TwoDx = -TwoDx; // jak równie¿ podwojonej sk³adowej
     f54:	30 94       	com	r3
     f56:	21 94       	neg	r2
     f58:	31 08       	sbc	r3, r1
     f5a:	33 94       	inc	r3
Xinc = 1; // ustalamy krok zwiêkszania pozycji w poziomie 
Yinc = 1; // ustalamy krok zwiêkszania pozycji w pionie

if(Dx < 0) // jesli sk³adowa pozioma jest ujemna 
  {
  Xinc = -1; // to bêdziemy siê "cofaæ" (krok ujemny)
     f5c:	ee 24       	eor	r14, r14
     f5e:	ea 94       	dec	r14
     f60:	fe 2c       	mov	r15, r14
     f62:	03 c0       	rjmp	.+6      	; 0xf6a <GLCD_Line+0x7c>
TwoDy = Dy + Dy; // podwojona sk³adowa pionowa

CurrentX = X1; // zaczynamy od X1
CurrentY = Y1; // oraz Y1

Xinc = 1; // ustalamy krok zwiêkszania pozycji w poziomie 
     f64:	61 e0       	ldi	r22, 0x01	; 1
     f66:	e6 2e       	mov	r14, r22
     f68:	f1 2c       	mov	r15, r1
  Xinc = -1; // to bêdziemy siê "cofaæ" (krok ujemny)
  Dx = -Dx;  // zmieniamy znak sk³adowej na dodatni
  TwoDx = -TwoDx; // jak równie¿ podwojonej sk³adowej
  }

if (Dy < 0) // jeœli sk³adowa pionowa jest ujemna
     f6a:	17 ff       	sbrs	r17, 7
     f6c:	0b c0       	rjmp	.+22     	; 0xf84 <GLCD_Line+0x96>
  {
  Yinc = -1; // to bêdziemy siê "cofaæ" (krok ujemny)
  Dy = -Dy; // zmieniamy znak sk³adowej na dodatki
     f6e:	10 95       	com	r17
     f70:	01 95       	neg	r16
     f72:	1f 4f       	sbci	r17, 0xFF	; 255
  TwoDy = -TwoDy; // jak równiez podwojonej sk³adowej
     f74:	50 94       	com	r5
     f76:	41 94       	neg	r4
     f78:	51 08       	sbc	r5, r1
     f7a:	53 94       	inc	r5
  TwoDx = -TwoDx; // jak równie¿ podwojonej sk³adowej
  }

if (Dy < 0) // jeœli sk³adowa pionowa jest ujemna
  {
  Yinc = -1; // to bêdziemy siê "cofaæ" (krok ujemny)
     f7c:	cc 24       	eor	r12, r12
     f7e:	ca 94       	dec	r12
     f80:	dc 2c       	mov	r13, r12
     f82:	03 c0       	rjmp	.+6      	; 0xf8a <GLCD_Line+0x9c>

CurrentX = X1; // zaczynamy od X1
CurrentY = Y1; // oraz Y1

Xinc = 1; // ustalamy krok zwiêkszania pozycji w poziomie 
Yinc = 1; // ustalamy krok zwiêkszania pozycji w pionie
     f84:	51 e0       	ldi	r21, 0x01	; 1
     f86:	c5 2e       	mov	r12, r21
     f88:	d1 2c       	mov	r13, r1
  Yinc = -1; // to bêdziemy siê "cofaæ" (krok ujemny)
  Dy = -Dy; // zmieniamy znak sk³adowej na dodatki
  TwoDy = -TwoDy; // jak równiez podwojonej sk³adowej
  }

GLCD_SetPixel(X1,Y1, color); // stawiamy pierwszy krok (zapalamy pierwszy piksel)
     f8a:	86 2d       	mov	r24, r6
     f8c:	68 2d       	mov	r22, r8
     f8e:	41 e0       	ldi	r20, 0x01	; 1
     f90:	0e 94 2e 06 	call	0xc5c	; 0xc5c <GLCD_SetPixel>

if ((Dx != 0) || (Dy != 0)) // sprawdzamy czy linia sk³ada siê z wiêcej ni¿ jednego punktu ;)
     f94:	8d 81       	ldd	r24, Y+5	; 0x05
     f96:	9e 81       	ldd	r25, Y+6	; 0x06
     f98:	00 97       	sbiw	r24, 0x00	; 0
     f9a:	21 f4       	brne	.+8      	; 0xfa4 <GLCD_Line+0xb6>
     f9c:	01 15       	cp	r16, r1
     f9e:	11 05       	cpc	r17, r1
     fa0:	31 f5       	brne	.+76     	; 0xfee <GLCD_Line+0x100>
     fa2:	43 c0       	rjmp	.+134    	; 0x102a <GLCD_Line+0x13c>
  {
  // sprawdzamy czy sk³adowa pionowa jest mniejsza lub równa sk³adowej poziomej
  if (Dy <= Dx) // jeœli tak, to idziemy "po iksach"
     fa4:	ed 81       	ldd	r30, Y+5	; 0x05
     fa6:	fe 81       	ldd	r31, Y+6	; 0x06
     fa8:	e0 17       	cp	r30, r16
     faa:	f1 07       	cpc	r31, r17
     fac:	04 f1       	brlt	.+64     	; 0xfee <GLCD_Line+0x100>
	}
  }
}


void GLCD_Line(int X1, int Y1,int X2,int Y2)
     fae:	57 01       	movw	r10, r14
     fb0:	a6 0c       	add	r10, r6
     fb2:	b7 1c       	adc	r11, r7
     fb4:	00 e0       	ldi	r16, 0x00	; 0
     fb6:	10 e0       	ldi	r17, 0x00	; 0
    { 
    TwoDxAccumulatedError = 0; // zerujemy zmienn¹ 
    do // ruszamy w drogê
	  {
      CurrentX += Xinc; // do aktualnej pozycji dodajemy krok 
      TwoDxAccumulatedError += TwoDy; // a tu dodajemy podwojon¹ sk³adow¹ pionow¹
     fb8:	04 0d       	add	r16, r4
     fba:	15 1d       	adc	r17, r5
      if(TwoDxAccumulatedError > Dx)  // jeœli TwoDxAccumulatedError jest wiêkszy od Dx
     fbc:	2d 81       	ldd	r18, Y+5	; 0x05
     fbe:	3e 81       	ldd	r19, Y+6	; 0x06
     fc0:	20 17       	cp	r18, r16
     fc2:	31 07       	cpc	r19, r17
     fc4:	24 f4       	brge	.+8      	; 0xfce <GLCD_Line+0xe0>
        {
        CurrentY += Yinc; // zwiêkszamy aktualn¹ pozycjê w pionie
     fc6:	8c 0c       	add	r8, r12
     fc8:	9d 1c       	adc	r9, r13
        TwoDxAccumulatedError -= TwoDx; // i odejmujemy TwoDx
     fca:	02 19       	sub	r16, r2
     fcc:	13 09       	sbc	r17, r3
        }
       GLCD_SetPixel(CurrentX,CurrentY, color);// stawiamy nastêpny krok (zapalamy piksel)
     fce:	8a 2d       	mov	r24, r10
     fd0:	68 2d       	mov	r22, r8
     fd2:	41 e0       	ldi	r20, 0x01	; 1
     fd4:	0e 94 2e 06 	call	0xc5c	; 0xc5c <GLCD_SetPixel>
     fd8:	ae 0c       	add	r10, r14
     fda:	bf 1c       	adc	r11, r15
	}
  }
}


void GLCD_Line(int X1, int Y1,int X2,int Y2)
     fdc:	c5 01       	movw	r24, r10
     fde:	8e 19       	sub	r24, r14
     fe0:	9f 09       	sbc	r25, r15
        {
        CurrentY += Yinc; // zwiêkszamy aktualn¹ pozycjê w pionie
        TwoDxAccumulatedError -= TwoDx; // i odejmujemy TwoDx
        }
       GLCD_SetPixel(CurrentX,CurrentY, color);// stawiamy nastêpny krok (zapalamy piksel)
       }while (CurrentX != X2); // idziemy tak d³ugo, a¿ osi¹gniemy punkt docelowy
     fe2:	e9 81       	ldd	r30, Y+1	; 0x01
     fe4:	fa 81       	ldd	r31, Y+2	; 0x02
     fe6:	8e 17       	cp	r24, r30
     fe8:	9f 07       	cpc	r25, r31
     fea:	31 f7       	brne	.-52     	; 0xfb8 <GLCD_Line+0xca>
     fec:	1e c0       	rjmp	.+60     	; 0x102a <GLCD_Line+0x13c>
	}
  }
}


void GLCD_Line(int X1, int Y1,int X2,int Y2)
     fee:	56 01       	movw	r10, r12
     ff0:	a8 0c       	add	r10, r8
     ff2:	b9 1c       	adc	r11, r9
     ff4:	43 01       	movw	r8, r6
     ff6:	66 24       	eor	r6, r6
     ff8:	77 24       	eor	r7, r7
      {
      TwoDyAccumulatedError = 0; 
      do 
	    {
        CurrentY += Yinc; 
        TwoDyAccumulatedError += TwoDx;
     ffa:	62 0c       	add	r6, r2
     ffc:	73 1c       	adc	r7, r3
        if(TwoDyAccumulatedError>Dy) 
     ffe:	06 15       	cp	r16, r6
    1000:	17 05       	cpc	r17, r7
    1002:	24 f4       	brge	.+8      	; 0x100c <GLCD_Line+0x11e>
          {
          CurrentX += Xinc;
    1004:	8e 0c       	add	r8, r14
    1006:	9f 1c       	adc	r9, r15
          TwoDyAccumulatedError -= TwoDy;
    1008:	64 18       	sub	r6, r4
    100a:	75 08       	sbc	r7, r5
          }
         GLCD_SetPixel(CurrentX,CurrentY, color); 
    100c:	88 2d       	mov	r24, r8
    100e:	6a 2d       	mov	r22, r10
    1010:	41 e0       	ldi	r20, 0x01	; 1
    1012:	0e 94 2e 06 	call	0xc5c	; 0xc5c <GLCD_SetPixel>
    1016:	ac 0c       	add	r10, r12
    1018:	bd 1c       	adc	r11, r13
	}
  }
}


void GLCD_Line(int X1, int Y1,int X2,int Y2)
    101a:	c5 01       	movw	r24, r10
    101c:	8c 19       	sub	r24, r12
    101e:	9d 09       	sbc	r25, r13
          {
          CurrentX += Xinc;
          TwoDyAccumulatedError -= TwoDy;
          }
         GLCD_SetPixel(CurrentX,CurrentY, color); 
         }while (CurrentY != Y2);
    1020:	2b 81       	ldd	r18, Y+3	; 0x03
    1022:	3c 81       	ldd	r19, Y+4	; 0x04
    1024:	82 17       	cp	r24, r18
    1026:	93 07       	cpc	r25, r19
    1028:	41 f7       	brne	.-48     	; 0xffa <GLCD_Line+0x10c>
    }
  }
}
    102a:	26 96       	adiw	r28, 0x06	; 6
    102c:	0f b6       	in	r0, 0x3f	; 63
    102e:	f8 94       	cli
    1030:	de bf       	out	0x3e, r29	; 62
    1032:	0f be       	out	0x3f, r0	; 63
    1034:	cd bf       	out	0x3d, r28	; 61
    1036:	cf 91       	pop	r28
    1038:	df 91       	pop	r29
    103a:	1f 91       	pop	r17
    103c:	0f 91       	pop	r16
    103e:	ff 90       	pop	r15
    1040:	ef 90       	pop	r14
    1042:	df 90       	pop	r13
    1044:	cf 90       	pop	r12
    1046:	bf 90       	pop	r11
    1048:	af 90       	pop	r10
    104a:	9f 90       	pop	r9
    104c:	8f 90       	pop	r8
    104e:	7f 90       	pop	r7
    1050:	6f 90       	pop	r6
    1052:	5f 90       	pop	r5
    1054:	4f 90       	pop	r4
    1056:	3f 90       	pop	r3
    1058:	2f 90       	pop	r2
    105a:	08 95       	ret

0000105c <gruba_pozioma>:
}*/




void gruba_pozioma(int X1, int Y,int szer) {
    105c:	bf 92       	push	r11
    105e:	cf 92       	push	r12
    1060:	df 92       	push	r13
    1062:	ef 92       	push	r14
    1064:	ff 92       	push	r15
    1066:	0f 93       	push	r16
    1068:	1f 93       	push	r17
    106a:	cf 93       	push	r28
    106c:	df 93       	push	r29
    106e:	d8 2e       	mov	r13, r24
    1070:	c6 2e       	mov	r12, r22
    1072:	7a 01       	movw	r14, r20
	if(szer>0){
    1074:	14 16       	cp	r1, r20
    1076:	15 06       	cpc	r1, r21
    1078:	94 f0       	brlt	.+36     	; 0x109e <gruba_pozioma+0x42>
    107a:	18 c0       	rjmp	.+48     	; 0x10ac <gruba_pozioma+0x50>
		for(int i = 0; i < 6; i++){
			for(int j = 0; j < szer; j++){
				GLCD_SetPixel(X1+j, Y+i, 1);
    107c:	9e 01       	movw	r18, r28
    107e:	2d 0d       	add	r18, r13
    1080:	82 2f       	mov	r24, r18
    1082:	6b 2d       	mov	r22, r11
    1084:	41 e0       	ldi	r20, 0x01	; 1
    1086:	0e 94 2e 06 	call	0xc5c	; 0xc5c <GLCD_SetPixel>


void gruba_pozioma(int X1, int Y,int szer) {
	if(szer>0){
		for(int i = 0; i < 6; i++){
			for(int j = 0; j < szer; j++){
    108a:	21 96       	adiw	r28, 0x01	; 1
    108c:	ce 15       	cp	r28, r14
    108e:	df 05       	cpc	r29, r15
    1090:	ac f3       	brlt	.-22     	; 0x107c <gruba_pozioma+0x20>



void gruba_pozioma(int X1, int Y,int szer) {
	if(szer>0){
		for(int i = 0; i < 6; i++){
    1092:	0f 5f       	subi	r16, 0xFF	; 255
    1094:	1f 4f       	sbci	r17, 0xFF	; 255
    1096:	06 30       	cpi	r16, 0x06	; 6
    1098:	11 05       	cpc	r17, r1
    109a:	19 f4       	brne	.+6      	; 0x10a2 <gruba_pozioma+0x46>
    109c:	07 c0       	rjmp	.+14     	; 0x10ac <gruba_pozioma+0x50>




void gruba_pozioma(int X1, int Y,int szer) {
	if(szer>0){
    109e:	00 e0       	ldi	r16, 0x00	; 0
    10a0:	10 e0       	ldi	r17, 0x00	; 0
}*/




void gruba_pozioma(int X1, int Y,int szer) {
    10a2:	c0 e0       	ldi	r28, 0x00	; 0
    10a4:	d0 e0       	ldi	r29, 0x00	; 0
	if(szer>0){
		for(int i = 0; i < 6; i++){
			for(int j = 0; j < szer; j++){
				GLCD_SetPixel(X1+j, Y+i, 1);
    10a6:	b0 2e       	mov	r11, r16
    10a8:	bc 0c       	add	r11, r12
    10aa:	e8 cf       	rjmp	.-48     	; 0x107c <gruba_pozioma+0x20>
			}
		}
	}
}
    10ac:	df 91       	pop	r29
    10ae:	cf 91       	pop	r28
    10b0:	1f 91       	pop	r17
    10b2:	0f 91       	pop	r16
    10b4:	ff 90       	pop	r15
    10b6:	ef 90       	pop	r14
    10b8:	df 90       	pop	r13
    10ba:	cf 90       	pop	r12
    10bc:	bf 90       	pop	r11
    10be:	08 95       	ret

000010c0 <gruba_pozioma_czysc>:


void gruba_pozioma_czysc(int X1, int Y,int szer){
    10c0:	bf 92       	push	r11
    10c2:	cf 92       	push	r12
    10c4:	df 92       	push	r13
    10c6:	ef 92       	push	r14
    10c8:	ff 92       	push	r15
    10ca:	0f 93       	push	r16
    10cc:	1f 93       	push	r17
    10ce:	cf 93       	push	r28
    10d0:	df 93       	push	r29
    10d2:	d8 2e       	mov	r13, r24
    10d4:	c6 2e       	mov	r12, r22
    10d6:	7a 01       	movw	r14, r20
	if(szer>0){
    10d8:	14 16       	cp	r1, r20
    10da:	15 06       	cpc	r1, r21
    10dc:	94 f0       	brlt	.+36     	; 0x1102 <__stack+0x3>
    10de:	18 c0       	rjmp	.+48     	; 0x1110 <__stack+0x11>
		for(int i = 0; i < 6; i++){
			for(int j = 0; j < szer; j++){
				GLCD_SetPixel(X1+j, Y+i, 0);
    10e0:	9e 01       	movw	r18, r28
    10e2:	2d 0d       	add	r18, r13
    10e4:	82 2f       	mov	r24, r18
    10e6:	6b 2d       	mov	r22, r11
    10e8:	40 e0       	ldi	r20, 0x00	; 0
    10ea:	0e 94 2e 06 	call	0xc5c	; 0xc5c <GLCD_SetPixel>


void gruba_pozioma_czysc(int X1, int Y,int szer){
	if(szer>0){
		for(int i = 0; i < 6; i++){
			for(int j = 0; j < szer; j++){
    10ee:	21 96       	adiw	r28, 0x01	; 1
    10f0:	ce 15       	cp	r28, r14
    10f2:	df 05       	cpc	r29, r15
    10f4:	ac f3       	brlt	.-22     	; 0x10e0 <gruba_pozioma_czysc+0x20>
}


void gruba_pozioma_czysc(int X1, int Y,int szer){
	if(szer>0){
		for(int i = 0; i < 6; i++){
    10f6:	0f 5f       	subi	r16, 0xFF	; 255
    10f8:	1f 4f       	sbci	r17, 0xFF	; 255
    10fa:	06 30       	cpi	r16, 0x06	; 6
    10fc:	11 05       	cpc	r17, r1
    10fe:	19 f4       	brne	.+6      	; 0x1106 <__stack+0x7>
    1100:	07 c0       	rjmp	.+14     	; 0x1110 <__stack+0x11>
	}
}


void gruba_pozioma_czysc(int X1, int Y,int szer){
	if(szer>0){
    1102:	00 e0       	ldi	r16, 0x00	; 0
    1104:	10 e0       	ldi	r17, 0x00	; 0
		}
	}
}


void gruba_pozioma_czysc(int X1, int Y,int szer){
    1106:	c0 e0       	ldi	r28, 0x00	; 0
    1108:	d0 e0       	ldi	r29, 0x00	; 0
	if(szer>0){
		for(int i = 0; i < 6; i++){
			for(int j = 0; j < szer; j++){
				GLCD_SetPixel(X1+j, Y+i, 0);
    110a:	b0 2e       	mov	r11, r16
    110c:	bc 0c       	add	r11, r12
    110e:	e8 cf       	rjmp	.-48     	; 0x10e0 <gruba_pozioma_czysc+0x20>
			}
		}
	}
}
    1110:	df 91       	pop	r29
    1112:	cf 91       	pop	r28
    1114:	1f 91       	pop	r17
    1116:	0f 91       	pop	r16
    1118:	ff 90       	pop	r15
    111a:	ef 90       	pop	r14
    111c:	df 90       	pop	r13
    111e:	cf 90       	pop	r12
    1120:	bf 90       	pop	r11
    1122:	08 95       	ret

00001124 <EEPROM_read_byte>:
#include <avr/io.h>
#include "obsluga_eeprom.h"

uint8_t EEPROM_read_byte(uint16_t uiAddress){ 
	while(EECR & (1<<EEWE)); 
    1124:	e1 99       	sbic	0x1c, 1	; 28
    1126:	fe cf       	rjmp	.-4      	; 0x1124 <EEPROM_read_byte>
	EEAR = uiAddress; 
    1128:	9f bb       	out	0x1f, r25	; 31
    112a:	8e bb       	out	0x1e, r24	; 30
	EECR |= (1<<EERE); 
    112c:	e0 9a       	sbi	0x1c, 0	; 28
	return EEDR; 
    112e:	8d b3       	in	r24, 0x1d	; 29
} 
    1130:	08 95       	ret

00001132 <EEPROM_read_word>:

uint32_t EEPROM_read_word(uint16_t first_byte_adress){
    1132:	cf 92       	push	r12
    1134:	df 92       	push	r13
    1136:	ef 92       	push	r14
    1138:	ff 92       	push	r15
    113a:	0f 93       	push	r16
    113c:	1f 93       	push	r17
    113e:	cf 93       	push	r28
    1140:	df 93       	push	r29
    1142:	6c 01       	movw	r12, r24
    1144:	c8 e1       	ldi	r28, 0x18	; 24
    1146:	d0 e0       	ldi	r29, 0x00	; 0
	uint32_t word = 0;
    1148:	ee 24       	eor	r14, r14
    114a:	ff 24       	eor	r15, r15
    114c:	87 01       	movw	r16, r14
	for(int i = 3; i >=0; i--){
		word += ((uint32_t)(EEPROM_read_byte(first_byte_adress + 3 - i)) << (8*i));
    114e:	c6 01       	movw	r24, r12
    1150:	0e 94 92 08 	call	0x1124	; 0x1124 <EEPROM_read_byte>
    1154:	90 e0       	ldi	r25, 0x00	; 0
    1156:	a0 e0       	ldi	r26, 0x00	; 0
    1158:	b0 e0       	ldi	r27, 0x00	; 0
    115a:	0c 2e       	mov	r0, r28
    115c:	04 c0       	rjmp	.+8      	; 0x1166 <EEPROM_read_word+0x34>
    115e:	88 0f       	add	r24, r24
    1160:	99 1f       	adc	r25, r25
    1162:	aa 1f       	adc	r26, r26
    1164:	bb 1f       	adc	r27, r27
    1166:	0a 94       	dec	r0
    1168:	d2 f7       	brpl	.-12     	; 0x115e <EEPROM_read_word+0x2c>
    116a:	e8 0e       	add	r14, r24
    116c:	f9 1e       	adc	r15, r25
    116e:	0a 1f       	adc	r16, r26
    1170:	1b 1f       	adc	r17, r27
    1172:	08 94       	sec
    1174:	c1 1c       	adc	r12, r1
    1176:	d1 1c       	adc	r13, r1
    1178:	28 97       	sbiw	r28, 0x08	; 8
	return EEDR; 
} 

uint32_t EEPROM_read_word(uint16_t first_byte_adress){
	uint32_t word = 0;
	for(int i = 3; i >=0; i--){
    117a:	3f ef       	ldi	r19, 0xFF	; 255
    117c:	c8 3f       	cpi	r28, 0xF8	; 248
    117e:	d3 07       	cpc	r29, r19
    1180:	31 f7       	brne	.-52     	; 0x114e <EEPROM_read_word+0x1c>
		word += ((uint32_t)(EEPROM_read_byte(first_byte_adress + 3 - i)) << (8*i));
	}
	return word;
}
    1182:	b7 01       	movw	r22, r14
    1184:	c8 01       	movw	r24, r16
    1186:	df 91       	pop	r29
    1188:	cf 91       	pop	r28
    118a:	1f 91       	pop	r17
    118c:	0f 91       	pop	r16
    118e:	ff 90       	pop	r15
    1190:	ef 90       	pop	r14
    1192:	df 90       	pop	r13
    1194:	cf 90       	pop	r12
    1196:	08 95       	ret

00001198 <EEPROM_read_word_2byte>:

uint16_t EEPROM_read_word_2byte(uint16_t first_byte_adress){
    1198:	1f 93       	push	r17
    119a:	cf 93       	push	r28
    119c:	df 93       	push	r29
    119e:	ec 01       	movw	r28, r24
	uint16_t word = 0;
	for(int i = 1; i >=0; i--){
		word += ((uint16_t)(EEPROM_read_byte(first_byte_adress + 1 - i)) << (8*i));
    11a0:	0e 94 92 08 	call	0x1124	; 0x1124 <EEPROM_read_byte>
    11a4:	18 2f       	mov	r17, r24
    11a6:	ce 01       	movw	r24, r28
    11a8:	01 96       	adiw	r24, 0x01	; 1
    11aa:	0e 94 92 08 	call	0x1124	; 0x1124 <EEPROM_read_byte>
    11ae:	31 2f       	mov	r19, r17
    11b0:	20 e0       	ldi	r18, 0x00	; 0
    11b2:	28 0f       	add	r18, r24
    11b4:	31 1d       	adc	r19, r1
	}
	return word;
}
    11b6:	c9 01       	movw	r24, r18
    11b8:	df 91       	pop	r29
    11ba:	cf 91       	pop	r28
    11bc:	1f 91       	pop	r17
    11be:	08 95       	ret

000011c0 <EEPROM_write_byte>:


void EEPROM_write_byte(uint16_t uiAddress, uint8_t ucData){ 
	while(EECR & (1<<EEWE));
    11c0:	e1 99       	sbic	0x1c, 1	; 28
    11c2:	fe cf       	rjmp	.-4      	; 0x11c0 <EEPROM_write_byte>
	EEAR = uiAddress; 
    11c4:	9f bb       	out	0x1f, r25	; 31
    11c6:	8e bb       	out	0x1e, r24	; 30
	EEDR = ucData;  
    11c8:	6d bb       	out	0x1d, r22	; 29
	EECR |= (1<<EEMWE); 
    11ca:	e2 9a       	sbi	0x1c, 2	; 28
	EECR |= (1<<EEWE);
    11cc:	e1 9a       	sbi	0x1c, 1	; 28
}
    11ce:	08 95       	ret

000011d0 <EEPROM_write_word>:


void EEPROM_write_word(uint16_t first_byte_adress, uint32_t ucData){
    11d0:	cf 92       	push	r12
    11d2:	df 92       	push	r13
    11d4:	ef 92       	push	r14
    11d6:	ff 92       	push	r15
    11d8:	0f 93       	push	r16
    11da:	1f 93       	push	r17
    11dc:	cf 93       	push	r28
    11de:	df 93       	push	r29
    11e0:	ec 01       	movw	r28, r24
    11e2:	6a 01       	movw	r12, r20
    11e4:	7b 01       	movw	r14, r22
    11e6:	08 e1       	ldi	r16, 0x18	; 24
    11e8:	10 e0       	ldi	r17, 0x00	; 0
	for(int i = 3; i >= 0; i--){
		EEPROM_write_byte(first_byte_adress + 3 - i, (uint8_t)((ucData >> (8*i)) & 0xff));
    11ea:	a7 01       	movw	r20, r14
    11ec:	96 01       	movw	r18, r12
    11ee:	00 2e       	mov	r0, r16
    11f0:	04 c0       	rjmp	.+8      	; 0x11fa <EEPROM_write_word+0x2a>
    11f2:	56 95       	lsr	r21
    11f4:	47 95       	ror	r20
    11f6:	37 95       	ror	r19
    11f8:	27 95       	ror	r18
    11fa:	0a 94       	dec	r0
    11fc:	d2 f7       	brpl	.-12     	; 0x11f2 <EEPROM_write_word+0x22>
    11fe:	ce 01       	movw	r24, r28
    1200:	62 2f       	mov	r22, r18
    1202:	0e 94 e0 08 	call	0x11c0	; 0x11c0 <EEPROM_write_byte>
    1206:	08 50       	subi	r16, 0x08	; 8
    1208:	10 40       	sbci	r17, 0x00	; 0
    120a:	21 96       	adiw	r28, 0x01	; 1
	EECR |= (1<<EEWE);
}


void EEPROM_write_word(uint16_t first_byte_adress, uint32_t ucData){
	for(int i = 3; i >= 0; i--){
    120c:	8f ef       	ldi	r24, 0xFF	; 255
    120e:	08 3f       	cpi	r16, 0xF8	; 248
    1210:	18 07       	cpc	r17, r24
    1212:	59 f7       	brne	.-42     	; 0x11ea <EEPROM_write_word+0x1a>
		EEPROM_write_byte(first_byte_adress + 3 - i, (uint8_t)((ucData >> (8*i)) & 0xff));
	}
}
    1214:	df 91       	pop	r29
    1216:	cf 91       	pop	r28
    1218:	1f 91       	pop	r17
    121a:	0f 91       	pop	r16
    121c:	ff 90       	pop	r15
    121e:	ef 90       	pop	r14
    1220:	df 90       	pop	r13
    1222:	cf 90       	pop	r12
    1224:	08 95       	ret

00001226 <EEPROM_write_word_2byte>:


void EEPROM_write_word_2byte(uint16_t first_byte_adress, uint16_t ucData){
    1226:	1f 93       	push	r17
    1228:	cf 93       	push	r28
    122a:	df 93       	push	r29
    122c:	ec 01       	movw	r28, r24
    122e:	16 2f       	mov	r17, r22
    1230:	67 2f       	mov	r22, r23
	for(int i = 1; i >= 0; i--){
		EEPROM_write_byte(first_byte_adress + 1 - i, (uint8_t)((ucData >> (8*i)) & 0xff));
    1232:	0e 94 e0 08 	call	0x11c0	; 0x11c0 <EEPROM_write_byte>
    1236:	ce 01       	movw	r24, r28
    1238:	01 96       	adiw	r24, 0x01	; 1
    123a:	61 2f       	mov	r22, r17
    123c:	0e 94 e0 08 	call	0x11c0	; 0x11c0 <EEPROM_write_byte>
	}
}
    1240:	df 91       	pop	r29
    1242:	cf 91       	pop	r28
    1244:	1f 91       	pop	r17
    1246:	08 95       	ret

00001248 <porownaj_1bytowe>:

uint8_t porownaj_1bytowe(uint16_t adres, uint8_t dana, uint8_t maxymalna){	
    1248:	1f 93       	push	r17
    124a:	16 2f       	mov	r17, r22
	if(dana > maxymalna){
    124c:	46 17       	cp	r20, r22
    124e:	18 f4       	brcc	.+6      	; 0x1256 <porownaj_1bytowe+0xe>
		maxymalna = dana;
		EEPROM_write_byte(adres, maxymalna);
    1250:	0e 94 e0 08 	call	0x11c0	; 0x11c0 <EEPROM_write_byte>
		return maxymalna;
    1254:	41 2f       	mov	r20, r17
	}
	else{
		return maxymalna;
	}
}
    1256:	84 2f       	mov	r24, r20
    1258:	1f 91       	pop	r17
    125a:	08 95       	ret

0000125c <calculate8bitCRC>:
//#include "crc.h"

// ############################################## CRC.C :START ################################################

//data to 32bitowe dane, write to flaga mówi¹ca czy dane id¹ do wysy³ania czy przychodz¹ z tranmsmisji
void calculate8bitCRC(uint8_t *output, uint32_t data, uint8_t write){
    125c:	cf 92       	push	r12
    125e:	df 92       	push	r13
    1260:	ef 92       	push	r14
    1262:	ff 92       	push	r15
    1264:	0f 93       	push	r16
    1266:	1f 93       	push	r17
    1268:	df 93       	push	r29
    126a:	cf 93       	push	r28
    126c:	cd b7       	in	r28, 0x3d	; 61
    126e:	de b7       	in	r29, 0x3e	; 62
    1270:	66 97       	sbiw	r28, 0x16	; 22
    1272:	0f b6       	in	r0, 0x3f	; 63
    1274:	f8 94       	cli
    1276:	de bf       	out	0x3e, r29	; 62
    1278:	0f be       	out	0x3f, r0	; 63
    127a:	cd bf       	out	0x3d, r28	; 61
    127c:	fc 01       	movw	r30, r24
	uint8_t xor_2 = 0;
	uint8_t xor_3 = 0;
	uint8_t xor_4 = 0;
	uint8_t xor_5 = 0;
	
	i=num_bits;
    127e:	dc 01       	movw	r26, r24

// ############################################## CRC.C :START ################################################

//data to 32bitowe dane, write to flaga mówi¹ca czy dane id¹ do wysy³ania czy przychodz¹ z tranmsmisji
void calculate8bitCRC(uint8_t *output, uint32_t data, uint8_t write){
	uint8_t i=0;
    1280:	80 e0       	ldi	r24, 0x00	; 0
	uint8_t bit_array[22];
	uint8_t num_bits;

	while (i<8){
		output[i] =0;
    1282:	1d 92       	st	X+, r1
		i++;
    1284:	8f 5f       	subi	r24, 0xFF	; 255
void calculate8bitCRC(uint8_t *output, uint32_t data, uint8_t write){
	uint8_t i=0;
	uint8_t bit_array[22];
	uint8_t num_bits;

	while (i<8){
    1286:	88 30       	cpi	r24, 0x08	; 8
    1288:	e1 f7       	brne	.-8      	; 0x1282 <calculate8bitCRC+0x26>
    128a:	8e 01       	movw	r16, r28
    128c:	0f 5f       	subi	r16, 0xFF	; 255
    128e:	1f 4f       	sbci	r17, 0xFF	; 255
		output[i] =0;
		i++;
	}
	i=0;
	if(write == 1){
    1290:	21 30       	cpi	r18, 0x01	; 1
    1292:	b9 f4       	brne	.+46     	; 0x12c2 <calculate8bitCRC+0x66>
    1294:	2f e1       	ldi	r18, 0x1F	; 31
    1296:	30 e0       	ldi	r19, 0x00	; 0
		num_bits = 21;

		while (i<21){
		    bit_array[i] = data & ((unsigned long) 0x00000001 << (31-i)) ? 1 : 0;
    1298:	db 01       	movw	r26, r22
    129a:	ca 01       	movw	r24, r20
    129c:	02 2e       	mov	r0, r18
    129e:	04 c0       	rjmp	.+8      	; 0x12a8 <calculate8bitCRC+0x4c>
    12a0:	b6 95       	lsr	r27
    12a2:	a7 95       	ror	r26
    12a4:	97 95       	ror	r25
    12a6:	87 95       	ror	r24
    12a8:	0a 94       	dec	r0
    12aa:	d2 f7       	brpl	.-12     	; 0x12a0 <calculate8bitCRC+0x44>
    12ac:	81 70       	andi	r24, 0x01	; 1
    12ae:	d8 01       	movw	r26, r16
    12b0:	8d 93       	st	X+, r24
    12b2:	8d 01       	movw	r16, r26
    12b4:	21 50       	subi	r18, 0x01	; 1
    12b6:	30 40       	sbci	r19, 0x00	; 0
	}
	i=0;
	if(write == 1){
		num_bits = 21;

		while (i<21){
    12b8:	2a 30       	cpi	r18, 0x0A	; 10
    12ba:	31 05       	cpc	r19, r1
    12bc:	69 f7       	brne	.-38     	; 0x1298 <calculate8bitCRC+0x3c>
		output[i] =0;
		i++;
	}
	i=0;
	if(write == 1){
		num_bits = 21;
    12be:	65 e1       	ldi	r22, 0x15	; 21
    12c0:	16 c0       	rjmp	.+44     	; 0x12ee <calculate8bitCRC+0x92>
	while (i<8){
		output[i] =0;
		i++;
	}
	i=0;
	if(write == 1){
    12c2:	2f e1       	ldi	r18, 0x1F	; 31
    12c4:	30 e0       	ldi	r19, 0x00	; 0
	}
	else{
		num_bits = 22;

		while (i<22){
		    bit_array[i] = data & ((unsigned long) 0x00000001 << (31-i)) ? 1 : 0;
    12c6:	db 01       	movw	r26, r22
    12c8:	ca 01       	movw	r24, r20
    12ca:	02 2e       	mov	r0, r18
    12cc:	04 c0       	rjmp	.+8      	; 0x12d6 <calculate8bitCRC+0x7a>
    12ce:	b6 95       	lsr	r27
    12d0:	a7 95       	ror	r26
    12d2:	97 95       	ror	r25
    12d4:	87 95       	ror	r24
    12d6:	0a 94       	dec	r0
    12d8:	d2 f7       	brpl	.-12     	; 0x12ce <calculate8bitCRC+0x72>
    12da:	81 70       	andi	r24, 0x01	; 1
    12dc:	d8 01       	movw	r26, r16
    12de:	8d 93       	st	X+, r24
    12e0:	8d 01       	movw	r16, r26
    12e2:	21 50       	subi	r18, 0x01	; 1
    12e4:	30 40       	sbci	r19, 0x00	; 0
		}
	}
	else{
		num_bits = 22;

		while (i<22){
    12e6:	29 30       	cpi	r18, 0x09	; 9
    12e8:	31 05       	cpc	r19, r1
    12ea:	69 f7       	brne	.-38     	; 0x12c6 <calculate8bitCRC+0x6a>
		    bit_array[i] = data & ((unsigned long) 0x00000001 << (31-i)) ? 1 : 0;
			i++;
		}
	}
	else{
		num_bits = 22;
    12ec:	66 e1       	ldi	r22, 0x16	; 22
		xor_1 = bit_array[num_bits-i] ^ output[7];

		output[7] = output[6];
		output[6] = output[5];
		output[5] = xor_5;
		output[4] = output[3];
    12ee:	c4 80       	ldd	r12, Z+4	; 0x04
    12f0:	47 81       	ldd	r20, Z+7	; 0x07
    12f2:	12 81       	ldd	r17, Z+2	; 0x02
    12f4:	01 81       	ldd	r16, Z+1	; 0x01
    12f6:	50 81       	ld	r21, Z
    12f8:	f6 80       	ldd	r15, Z+6	; 0x06
    12fa:	75 81       	ldd	r23, Z+5	; 0x05
    12fc:	e3 80       	ldd	r14, Z+3	; 0x03
	while (i>0){
 		xor_5 = output[4] ^ output[7];
		xor_4 = output[2] ^ output[7];
		xor_3 = output[1] ^ output[7];
		xor_2 = output[0] ^ output[7];
		xor_1 = bit_array[num_bits-i] ^ output[7];
    12fe:	26 2f       	mov	r18, r22
    1300:	30 e0       	ldi	r19, 0x00	; 0
    1302:	ce 01       	movw	r24, r28
    1304:	01 96       	adiw	r24, 0x01	; 1
    1306:	05 c0       	rjmp	.+10     	; 0x1312 <calculate8bitCRC+0xb6>

		output[7] = output[6];
    1308:	4f 2d       	mov	r20, r15
		output[6] = output[5];
    130a:	f7 2e       	mov	r15, r23
		output[5] = xor_5;
    130c:	7c 2d       	mov	r23, r12
		output[4] = output[3];
    130e:	ce 2c       	mov	r12, r14
		output[3] = xor_4;
    1310:	ed 2c       	mov	r14, r13
	uint8_t xor_4 = 0;
	uint8_t xor_5 = 0;
	
	i=num_bits;
	while (i>0){
 		xor_5 = output[4] ^ output[7];
    1312:	c4 26       	eor	r12, r20
		xor_4 = output[2] ^ output[7];
    1314:	d1 2e       	mov	r13, r17
    1316:	d4 26       	eor	r13, r20
		xor_3 = output[1] ^ output[7];
    1318:	10 2f       	mov	r17, r16
    131a:	14 27       	eor	r17, r20
		xor_2 = output[0] ^ output[7];
    131c:	05 2f       	mov	r16, r21
    131e:	04 27       	eor	r16, r20
		xor_1 = bit_array[num_bits-i] ^ output[7];
    1320:	d9 01       	movw	r26, r18
    1322:	a6 1b       	sub	r26, r22
    1324:	b1 09       	sbc	r27, r1
    1326:	a8 0f       	add	r26, r24
    1328:	b9 1f       	adc	r27, r25
    132a:	5c 91       	ld	r21, X
    132c:	54 27       	eor	r21, r20
		output[4] = output[3];
		output[3] = xor_4;
		output[2] = xor_3;
		output[1] = xor_2;
		output[0] = xor_1;
		i--;
    132e:	61 50       	subi	r22, 0x01	; 1
	uint8_t xor_3 = 0;
	uint8_t xor_4 = 0;
	uint8_t xor_5 = 0;
	
	i=num_bits;
	while (i>0){
    1330:	59 f7       	brne	.-42     	; 0x1308 <calculate8bitCRC+0xac>
    1332:	e4 82       	std	Z+4, r14	; 0x04
    1334:	f7 82       	std	Z+7, r15	; 0x07
    1336:	12 83       	std	Z+2, r17	; 0x02
    1338:	01 83       	std	Z+1, r16	; 0x01
    133a:	50 83       	st	Z, r21
    133c:	76 83       	std	Z+6, r23	; 0x06
    133e:	c5 82       	std	Z+5, r12	; 0x05
    1340:	d3 82       	std	Z+3, r13	; 0x03
		output[2] = xor_3;
		output[1] = xor_2;
		output[0] = xor_1;
		i--;
 	}
}
    1342:	66 96       	adiw	r28, 0x16	; 22
    1344:	0f b6       	in	r0, 0x3f	; 63
    1346:	f8 94       	cli
    1348:	de bf       	out	0x3e, r29	; 62
    134a:	0f be       	out	0x3f, r0	; 63
    134c:	cd bf       	out	0x3d, r28	; 61
    134e:	cf 91       	pop	r28
    1350:	df 91       	pop	r29
    1352:	1f 91       	pop	r17
    1354:	0f 91       	pop	r16
    1356:	ff 90       	pop	r15
    1358:	ef 90       	pop	r14
    135a:	df 90       	pop	r13
    135c:	cf 90       	pop	r12
    135e:	08 95       	ret

00001360 <calculate4bitCRC>:
//uint8_t output[4]; dzielnik 10110
uint8_t calculate4bitCRC(uint32_t data){
	uint8_t polynomial = 0xD8;
	uint32_t remainder = data;
    1360:	26 2f       	mov	r18, r22
    1362:	37 2f       	mov	r19, r23
    1364:	48 2f       	mov	r20, r24
    1366:	59 2f       	mov	r21, r25
    1368:	da 01       	movw	r26, r20
    136a:	c9 01       	movw	r24, r18
    136c:	64 e1       	ldi	r22, 0x14	; 20
	
	for (uint8_t bit = 20; bit > 0; --bit){
		if (remainder & 0x80){
			remainder ^= polynomial;
    136e:	28 ed       	ldi	r18, 0xD8	; 216
    1370:	30 e0       	ldi	r19, 0x00	; 0
    1372:	40 e0       	ldi	r20, 0x00	; 0
    1374:	50 e0       	ldi	r21, 0x00	; 0
uint8_t calculate4bitCRC(uint32_t data){
	uint8_t polynomial = 0xD8;
	uint32_t remainder = data;
	
	for (uint8_t bit = 20; bit > 0; --bit){
		if (remainder & 0x80){
    1376:	87 ff       	sbrs	r24, 7
    1378:	04 c0       	rjmp	.+8      	; 0x1382 <calculate4bitCRC+0x22>
			remainder ^= polynomial;
    137a:	82 27       	eor	r24, r18
    137c:	93 27       	eor	r25, r19
    137e:	a4 27       	eor	r26, r20
    1380:	b5 27       	eor	r27, r21
		}
		remainder = (remainder <<1);
    1382:	88 0f       	add	r24, r24
    1384:	99 1f       	adc	r25, r25
    1386:	aa 1f       	adc	r26, r26
    1388:	bb 1f       	adc	r27, r27
    138a:	61 50       	subi	r22, 0x01	; 1
//uint8_t output[4]; dzielnik 10110
uint8_t calculate4bitCRC(uint32_t data){
	uint8_t polynomial = 0xD8;
	uint32_t remainder = data;
	
	for (uint8_t bit = 20; bit > 0; --bit){
    138c:	a1 f7       	brne	.-24     	; 0x1376 <calculate4bitCRC+0x16>
		if (remainder & 0x80){
			remainder ^= polynomial;
		}
		remainder = (remainder <<1);
	}
	return (remainder >> 4);
    138e:	24 e0       	ldi	r18, 0x04	; 4
    1390:	b6 95       	lsr	r27
    1392:	a7 95       	ror	r26
    1394:	97 95       	ror	r25
    1396:	87 95       	ror	r24
    1398:	2a 95       	dec	r18
    139a:	d1 f7       	brne	.-12     	; 0x1390 <calculate4bitCRC+0x30>
}
    139c:	08 95       	ret

0000139e <__vector_12>:
#include <avr/interrupt.h>
#include "timer1.h"
#include "common.h"


ISR(TIMER1_COMPA_vect) {
    139e:	1f 92       	push	r1
    13a0:	0f 92       	push	r0
    13a2:	0f b6       	in	r0, 0x3f	; 63
    13a4:	0f 92       	push	r0
    13a6:	11 24       	eor	r1, r1
    13a8:	8f 93       	push	r24
    13aa:	9f 93       	push	r25
	licznik_10ms++;
    13ac:	80 91 82 02 	lds	r24, 0x0282
    13b0:	90 91 83 02 	lds	r25, 0x0283
    13b4:	01 96       	adiw	r24, 0x01	; 1
    13b6:	90 93 83 02 	sts	0x0283, r25
    13ba:	80 93 82 02 	sts	0x0282, r24
	licznik_20ms++;
    13be:	80 91 76 02 	lds	r24, 0x0276
    13c2:	90 91 77 02 	lds	r25, 0x0277
    13c6:	01 96       	adiw	r24, 0x01	; 1
    13c8:	90 93 77 02 	sts	0x0277, r25
    13cc:	80 93 76 02 	sts	0x0276, r24
	licznik_1s++;
    13d0:	80 91 47 02 	lds	r24, 0x0247
    13d4:	90 91 48 02 	lds	r25, 0x0248
    13d8:	01 96       	adiw	r24, 0x01	; 1
    13da:	90 93 48 02 	sts	0x0248, r25
    13de:	80 93 47 02 	sts	0x0247, r24
	licznik_3s++;
    13e2:	80 91 4d 02 	lds	r24, 0x024D
    13e6:	90 91 4e 02 	lds	r25, 0x024E
    13ea:	01 96       	adiw	r24, 0x01	; 1
    13ec:	90 93 4e 02 	sts	0x024E, r25
    13f0:	80 93 4d 02 	sts	0x024D, r24
}
    13f4:	9f 91       	pop	r25
    13f6:	8f 91       	pop	r24
    13f8:	0f 90       	pop	r0
    13fa:	0f be       	out	0x3f, r0	; 63
    13fc:	0f 90       	pop	r0
    13fe:	1f 90       	pop	r1
    1400:	18 95       	reti

00001402 <timer1_init>:

void timer1_init(){
	OCR1A=624;
    1402:	80 e7       	ldi	r24, 0x70	; 112
    1404:	92 e0       	ldi	r25, 0x02	; 2
    1406:	9b bd       	out	0x2b, r25	; 43
    1408:	8a bd       	out	0x2a, r24	; 42
	TCNT1=0;
    140a:	1d bc       	out	0x2d, r1	; 45
    140c:	1c bc       	out	0x2c, r1	; 44
	TCCR1A = 0x00;
    140e:	1f bc       	out	0x2f, r1	; 47
	TCCR1B &= ~(1<<WGM13) & ~(1<<CS11) & ~(1<<CS10);
    1410:	8e b5       	in	r24, 0x2e	; 46
    1412:	8c 7e       	andi	r24, 0xEC	; 236
    1414:	8e bd       	out	0x2e, r24	; 46
	TCCR1B |= (1<<WGM12) | (1<<CS12);
    1416:	8e b5       	in	r24, 0x2e	; 46
    1418:	8c 60       	ori	r24, 0x0C	; 12
    141a:	8e bd       	out	0x2e, r24	; 46
	TIMSK |= (1<<OCIE1A);
    141c:	87 b7       	in	r24, 0x37	; 55
    141e:	80 61       	ori	r24, 0x10	; 16
    1420:	87 bf       	out	0x37, r24	; 55
	sei();  
    1422:	78 94       	sei
}
    1424:	08 95       	ret

00001426 <ADC_init>:
#include "obsluga_ADC.h"



void ADC_init(){
	ADCSRA |= (1<<ADPS0) | (1<<ADPS1) | (1<<ADPS2) | (1<<ADEN) | (1<<ADSC);
    1426:	86 b1       	in	r24, 0x06	; 6
    1428:	87 6c       	ori	r24, 0xC7	; 199
    142a:	86 b9       	out	0x06, r24	; 6
	ADCSRA &= ~(1<<ADIF) & ~(1<<ADIE) & ~(1<<ADFR); //5 oznacza ADFR
    142c:	86 b1       	in	r24, 0x06	; 6
    142e:	87 7c       	andi	r24, 0xC7	; 199
    1430:	86 b9       	out	0x06, r24	; 6
	ADMUX |= (1<<REFS0);
    1432:	3e 9a       	sbi	0x07, 6	; 7
}
    1434:	08 95       	ret

00001436 <zmierz_prad_bocznik>:


uint16_t zmierz_prad_bocznik(){ //ADC0
	ADMUX &= ~(1<<MUX0);
    1436:	38 98       	cbi	0x07, 0	; 7
	ADCSRA |= (1<<ADSC);
    1438:	36 9a       	sbi	0x06, 6	; 6
	while(ADCSRA & (1<<ADSC));
    143a:	36 99       	sbic	0x06, 6	; 6
    143c:	fe cf       	rjmp	.-4      	; 0x143a <zmierz_prad_bocznik+0x4>
	return ADC;
    143e:	24 b1       	in	r18, 0x04	; 4
    1440:	35 b1       	in	r19, 0x05	; 5
}
    1442:	c9 01       	movw	r24, r18
    1444:	08 95       	ret

00001446 <zmierz_napiecie_silnik>:

uint16_t zmierz_napiecie_silnik(){ //ADC1
	ADMUX |= (1<<MUX0);
    1446:	38 9a       	sbi	0x07, 0	; 7
	ADCSRA |= (1<<ADSC);
    1448:	36 9a       	sbi	0x06, 6	; 6
	while(ADCSRA & (1<<ADSC));
    144a:	36 99       	sbic	0x06, 6	; 6
    144c:	fe cf       	rjmp	.-4      	; 0x144a <zmierz_napiecie_silnik+0x4>
	return ADC;
    144e:	24 b1       	in	r18, 0x04	; 4
    1450:	35 b1       	in	r19, 0x05	; 5
}
    1452:	c9 01       	movw	r24, r18
    1454:	08 95       	ret

00001456 <oblicz_napiecie_silnik>:
#include "obliczanie_szerokosci_paskow.h"
#include "common.h"


uint8_t oblicz_napiecie_silnik(uint16_t data){
	if((data > 511) && (data<1024)){
    1456:	bc 01       	movw	r22, r24
    1458:	60 50       	subi	r22, 0x00	; 0
    145a:	72 40       	sbci	r23, 0x02	; 2
    145c:	22 e0       	ldi	r18, 0x02	; 2
    145e:	60 30       	cpi	r22, 0x00	; 0
    1460:	72 07       	cpc	r23, r18
    1462:	a0 f4       	brcc	.+40     	; 0x148c <oblicz_napiecie_silnik+0x36>
		uint8_t napiecie = (float)(data-512)*60.0/512.0;
    1464:	80 e0       	ldi	r24, 0x00	; 0
    1466:	90 e0       	ldi	r25, 0x00	; 0
    1468:	0e 94 ab 0f 	call	0x1f56	; 0x1f56 <__floatunsisf>
    146c:	20 e0       	ldi	r18, 0x00	; 0
    146e:	30 e0       	ldi	r19, 0x00	; 0
    1470:	40 e7       	ldi	r20, 0x70	; 112
    1472:	52 e4       	ldi	r21, 0x42	; 66
    1474:	0e 94 21 0d 	call	0x1a42	; 0x1a42 <__mulsf3>
    1478:	20 e0       	ldi	r18, 0x00	; 0
    147a:	30 e0       	ldi	r19, 0x00	; 0
    147c:	40 e0       	ldi	r20, 0x00	; 0
    147e:	5b e3       	ldi	r21, 0x3B	; 59
    1480:	0e 94 21 0d 	call	0x1a42	; 0x1a42 <__mulsf3>
    1484:	0e 94 4d 0b 	call	0x169a	; 0x169a <__fixunssfsi>
    1488:	86 2f       	mov	r24, r22
		return napiecie;
    148a:	08 95       	ret
	}
	else if(data <= 511){
    148c:	22 e0       	ldi	r18, 0x02	; 2
    148e:	80 30       	cpi	r24, 0x00	; 0
    1490:	92 07       	cpc	r25, r18
    1492:	10 f4       	brcc	.+4      	; 0x1498 <oblicz_napiecie_silnik+0x42>
		return 0;																//min paska
    1494:	80 e0       	ldi	r24, 0x00	; 0
    1496:	08 95       	ret
	}
	else{
		return 60;																//max paska
    1498:	8c e3       	ldi	r24, 0x3C	; 60
	}
}
    149a:	08 95       	ret

0000149c <oblicz_prad_bocznik>:


uint8_t oblicz_prad_bocznik(uint16_t data){
	if((data > 511) && (data<1024)){
    149c:	bc 01       	movw	r22, r24
    149e:	60 50       	subi	r22, 0x00	; 0
    14a0:	72 40       	sbci	r23, 0x02	; 2
    14a2:	22 e0       	ldi	r18, 0x02	; 2
    14a4:	60 30       	cpi	r22, 0x00	; 0
    14a6:	72 07       	cpc	r23, r18
    14a8:	a0 f4       	brcc	.+40     	; 0x14d2 <oblicz_prad_bocznik+0x36>
		uint8_t napiecie = (float)(data-512)*200.0/512.0;
    14aa:	80 e0       	ldi	r24, 0x00	; 0
    14ac:	90 e0       	ldi	r25, 0x00	; 0
    14ae:	0e 94 ab 0f 	call	0x1f56	; 0x1f56 <__floatunsisf>
    14b2:	20 e0       	ldi	r18, 0x00	; 0
    14b4:	30 e0       	ldi	r19, 0x00	; 0
    14b6:	48 e4       	ldi	r20, 0x48	; 72
    14b8:	53 e4       	ldi	r21, 0x43	; 67
    14ba:	0e 94 21 0d 	call	0x1a42	; 0x1a42 <__mulsf3>
    14be:	20 e0       	ldi	r18, 0x00	; 0
    14c0:	30 e0       	ldi	r19, 0x00	; 0
    14c2:	40 e0       	ldi	r20, 0x00	; 0
    14c4:	5b e3       	ldi	r21, 0x3B	; 59
    14c6:	0e 94 21 0d 	call	0x1a42	; 0x1a42 <__mulsf3>
    14ca:	0e 94 4d 0b 	call	0x169a	; 0x169a <__fixunssfsi>
    14ce:	86 2f       	mov	r24, r22
		return napiecie;
    14d0:	08 95       	ret
	}
	else if(data <= 511){
    14d2:	22 e0       	ldi	r18, 0x02	; 2
    14d4:	80 30       	cpi	r24, 0x00	; 0
    14d6:	92 07       	cpc	r25, r18
    14d8:	10 f4       	brcc	.+4      	; 0x14de <oblicz_prad_bocznik+0x42>
		return 0;																//min paska
    14da:	80 e0       	ldi	r24, 0x00	; 0
    14dc:	08 95       	ret
	}
	else{
		return 200;																//max paska
    14de:	88 ec       	ldi	r24, 0xC8	; 200
	}
}
    14e0:	08 95       	ret

000014e2 <oblicz_predkosc>:


uint8_t oblicz_predkosc(uint8_t data_nap, uint8_t data_pr){
    14e2:	cf 92       	push	r12
    14e4:	df 92       	push	r13
    14e6:	ef 92       	push	r14
    14e8:	ff 92       	push	r15
    14ea:	1f 93       	push	r17
    14ec:	16 2f       	mov	r17, r22
	uint8_t predkosc = (0.76*data_nap - 0.01152*data_pr)*0.353*0.87*3.6;
    14ee:	90 e0       	ldi	r25, 0x00	; 0
    14f0:	9c 01       	movw	r18, r24
    14f2:	b9 01       	movw	r22, r18
    14f4:	88 27       	eor	r24, r24
    14f6:	77 fd       	sbrc	r23, 7
    14f8:	80 95       	com	r24
    14fa:	98 2f       	mov	r25, r24
    14fc:	0e 94 f9 0e 	call	0x1df2	; 0x1df2 <__floatsisf>
    1500:	2c e5       	ldi	r18, 0x5C	; 92
    1502:	3f e8       	ldi	r19, 0x8F	; 143
    1504:	42 e4       	ldi	r20, 0x42	; 66
    1506:	5f e3       	ldi	r21, 0x3F	; 63
    1508:	0e 94 21 0d 	call	0x1a42	; 0x1a42 <__mulsf3>
    150c:	6b 01       	movw	r12, r22
    150e:	7c 01       	movw	r14, r24
    1510:	61 2f       	mov	r22, r17
    1512:	70 e0       	ldi	r23, 0x00	; 0
    1514:	88 27       	eor	r24, r24
    1516:	77 fd       	sbrc	r23, 7
    1518:	80 95       	com	r24
    151a:	98 2f       	mov	r25, r24
    151c:	0e 94 f9 0e 	call	0x1df2	; 0x1df2 <__floatsisf>
    1520:	22 e6       	ldi	r18, 0x62	; 98
    1522:	3e eb       	ldi	r19, 0xBE	; 190
    1524:	4c e3       	ldi	r20, 0x3C	; 60
    1526:	5c e3       	ldi	r21, 0x3C	; 60
    1528:	0e 94 21 0d 	call	0x1a42	; 0x1a42 <__mulsf3>
    152c:	9b 01       	movw	r18, r22
    152e:	ac 01       	movw	r20, r24
    1530:	c7 01       	movw	r24, r14
    1532:	b6 01       	movw	r22, r12
    1534:	0e 94 f0 0c 	call	0x19e0	; 0x19e0 <__subsf3>
    1538:	2a e6       	ldi	r18, 0x6A	; 106
    153a:	3c eb       	ldi	r19, 0xBC	; 188
    153c:	44 eb       	ldi	r20, 0xB4	; 180
    153e:	5e e3       	ldi	r21, 0x3E	; 62
    1540:	0e 94 21 0d 	call	0x1a42	; 0x1a42 <__mulsf3>
    1544:	22 e5       	ldi	r18, 0x52	; 82
    1546:	38 eb       	ldi	r19, 0xB8	; 184
    1548:	4e e5       	ldi	r20, 0x5E	; 94
    154a:	5f e3       	ldi	r21, 0x3F	; 63
    154c:	0e 94 21 0d 	call	0x1a42	; 0x1a42 <__mulsf3>
    1550:	26 e6       	ldi	r18, 0x66	; 102
    1552:	36 e6       	ldi	r19, 0x66	; 102
    1554:	46 e6       	ldi	r20, 0x66	; 102
    1556:	50 e4       	ldi	r21, 0x40	; 64
    1558:	0e 94 21 0d 	call	0x1a42	; 0x1a42 <__mulsf3>
    155c:	0e 94 4d 0b 	call	0x169a	; 0x169a <__fixunssfsi>
    1560:	86 2f       	mov	r24, r22
	if((predkosc > 0) && (predkosc < 70)){
    1562:	96 2f       	mov	r25, r22
    1564:	91 50       	subi	r25, 0x01	; 1
    1566:	95 34       	cpi	r25, 0x45	; 69
    1568:	08 f0       	brcs	.+2      	; 0x156c <oblicz_predkosc+0x8a>
		return predkosc;
	}
	else{
		return 0;
    156a:	80 e0       	ldi	r24, 0x00	; 0
	}
}
    156c:	1f 91       	pop	r17
    156e:	ff 90       	pop	r15
    1570:	ef 90       	pop	r14
    1572:	df 90       	pop	r13
    1574:	cf 90       	pop	r12
    1576:	08 95       	ret

00001578 <oblicz_napiecie_srednie_cela>:


uint16_t oblicz_napiecie_srednie_cela(){
	uint16_t suma_napiecia=0;
    1578:	e2 e5       	ldi	r30, 0x52	; 82
    157a:	f2 e0       	ldi	r31, 0x02	; 2
    157c:	20 e0       	ldi	r18, 0x00	; 0
    157e:	30 e0       	ldi	r19, 0x00	; 0
	uint16_t srednie_napiecie;
	uint8_t i = 0;
	for (i = 0; i < 6; i++){
		suma_napiecia = suma_napiecia + tablica_odpowiedzi_bms[i];
    1580:	81 91       	ld	r24, Z+
    1582:	28 0f       	add	r18, r24
    1584:	31 1d       	adc	r19, r1

uint16_t oblicz_napiecie_srednie_cela(){
	uint16_t suma_napiecia=0;
	uint16_t srednie_napiecie;
	uint8_t i = 0;
	for (i = 0; i < 6; i++){
    1586:	82 e0       	ldi	r24, 0x02	; 2
    1588:	e8 35       	cpi	r30, 0x58	; 88
    158a:	f8 07       	cpc	r31, r24
    158c:	c9 f7       	brne	.-14     	; 0x1580 <oblicz_napiecie_srednie_cela+0x8>
		suma_napiecia = suma_napiecia + tablica_odpowiedzi_bms[i];
	}
	for (i = 13; i < 17; i++){
		suma_napiecia = (suma_napiecia + tablica_odpowiedzi_bms[i]);
    158e:	40 91 60 02 	lds	r20, 0x0260
    1592:	80 91 5f 02 	lds	r24, 0x025F
    1596:	90 e0       	ldi	r25, 0x00	; 0
    1598:	84 0f       	add	r24, r20
    159a:	91 1d       	adc	r25, r1
    159c:	40 91 61 02 	lds	r20, 0x0261
    15a0:	84 0f       	add	r24, r20
    15a2:	91 1d       	adc	r25, r1
    15a4:	40 91 62 02 	lds	r20, 0x0262
    15a8:	84 0f       	add	r24, r20
    15aa:	91 1d       	adc	r25, r1
	}
	for (i = 25; i < 29; i++){
		suma_napiecia = (suma_napiecia + tablica_odpowiedzi_bms[i]);
    15ac:	40 91 6b 02 	lds	r20, 0x026B
	uint8_t i = 0;
	for (i = 0; i < 6; i++){
		suma_napiecia = suma_napiecia + tablica_odpowiedzi_bms[i];
	}
	for (i = 13; i < 17; i++){
		suma_napiecia = (suma_napiecia + tablica_odpowiedzi_bms[i]);
    15b0:	84 0f       	add	r24, r20
    15b2:	91 1d       	adc	r25, r1
	}
	for (i = 25; i < 29; i++){
		suma_napiecia = (suma_napiecia + tablica_odpowiedzi_bms[i]);
    15b4:	40 91 6c 02 	lds	r20, 0x026C
    15b8:	84 0f       	add	r24, r20
    15ba:	91 1d       	adc	r25, r1
    15bc:	40 91 6d 02 	lds	r20, 0x026D
    15c0:	84 0f       	add	r24, r20
    15c2:	91 1d       	adc	r25, r1
    15c4:	40 91 6e 02 	lds	r20, 0x026E
    15c8:	84 0f       	add	r24, r20
    15ca:	91 1d       	adc	r25, r1
    15cc:	82 0f       	add	r24, r18
    15ce:	93 1f       	adc	r25, r19
	}
	srednie_napiecie = suma_napiecia/0x0D;
    15d0:	6d e0       	ldi	r22, 0x0D	; 13
    15d2:	70 e0       	ldi	r23, 0x00	; 0
    15d4:	0e 94 0d 12 	call	0x241a	; 0x241a <__udivmodhi4>
	return srednie_napiecie;
}
    15d8:	cb 01       	movw	r24, r22
    15da:	08 95       	ret

000015dc <oblicz_napiecie_srednie_cela_liczba>:


float oblicz_napiecie_srednie_cela_liczba(){
	float srednie = (float)(napiecie_srednie_cela)*4.0/4096.0+1;
    15dc:	60 91 7e 02 	lds	r22, 0x027E
    15e0:	70 91 7f 02 	lds	r23, 0x027F
    15e4:	80 e0       	ldi	r24, 0x00	; 0
    15e6:	90 e0       	ldi	r25, 0x00	; 0
    15e8:	0e 94 ab 0f 	call	0x1f56	; 0x1f56 <__floatunsisf>
    15ec:	20 e0       	ldi	r18, 0x00	; 0
    15ee:	30 e0       	ldi	r19, 0x00	; 0
    15f0:	40 e8       	ldi	r20, 0x80	; 128
    15f2:	50 e4       	ldi	r21, 0x40	; 64
    15f4:	0e 94 21 0d 	call	0x1a42	; 0x1a42 <__mulsf3>
    15f8:	20 e0       	ldi	r18, 0x00	; 0
    15fa:	30 e0       	ldi	r19, 0x00	; 0
    15fc:	40 e8       	ldi	r20, 0x80	; 128
    15fe:	59 e3       	ldi	r21, 0x39	; 57
    1600:	0e 94 21 0d 	call	0x1a42	; 0x1a42 <__mulsf3>
    1604:	20 e0       	ldi	r18, 0x00	; 0
    1606:	30 e0       	ldi	r19, 0x00	; 0
    1608:	40 e8       	ldi	r20, 0x80	; 128
    160a:	5f e3       	ldi	r21, 0x3F	; 63
    160c:	0e 94 c3 0c 	call	0x1986	; 0x1986 <__addsf3>
	return srednie;
}
    1610:	08 95       	ret

00001612 <oblicz_szerokosc_paska_prad_bocznika>:


uint8_t oblicz_szerokosc_paska_prad_bocznika(uint16_t data){
	if((data > 511) && (data<1024)){
    1612:	bc 01       	movw	r22, r24
    1614:	60 50       	subi	r22, 0x00	; 0
    1616:	72 40       	sbci	r23, 0x02	; 2
    1618:	22 e0       	ldi	r18, 0x02	; 2
    161a:	60 30       	cpi	r22, 0x00	; 0
    161c:	72 07       	cpc	r23, r18
    161e:	70 f4       	brcc	.+28     	; 0x163c <oblicz_szerokosc_paska_prad_bocznika+0x2a>
		return (float)(data-512)/7.76;
    1620:	80 e0       	ldi	r24, 0x00	; 0
    1622:	90 e0       	ldi	r25, 0x00	; 0
    1624:	0e 94 ab 0f 	call	0x1f56	; 0x1f56 <__floatunsisf>
    1628:	2c ee       	ldi	r18, 0xEC	; 236
    162a:	31 e5       	ldi	r19, 0x51	; 81
    162c:	48 ef       	ldi	r20, 0xF8	; 248
    162e:	50 e4       	ldi	r21, 0x40	; 64
    1630:	0e 94 1b 0e 	call	0x1c36	; 0x1c36 <__divsf3>
    1634:	0e 94 4d 0b 	call	0x169a	; 0x169a <__fixunssfsi>
    1638:	86 2f       	mov	r24, r22
    163a:	08 95       	ret
	}
	else if(data <= 511){
    163c:	22 e0       	ldi	r18, 0x02	; 2
    163e:	80 30       	cpi	r24, 0x00	; 0
    1640:	92 07       	cpc	r25, r18
    1642:	10 f4       	brcc	.+4      	; 0x1648 <oblicz_szerokosc_paska_prad_bocznika+0x36>
		return 0;																//min paska
    1644:	80 e0       	ldi	r24, 0x00	; 0
    1646:	08 95       	ret
	}
	else{
		return 66;																//max paska
    1648:	82 e4       	ldi	r24, 0x42	; 66
	}
}
    164a:	08 95       	ret

0000164c <oblicz_szerokosc_paska_predkosc>:


uint8_t oblicz_szerokosc_paska_predkosc(uint8_t data){
	return data;
}
    164c:	08 95       	ret

0000164e <oblicz_szerokosc_paska_napiecie_cela_real>:


uint8_t oblicz_szerokosc_paska_napiecie_cela_real(uint16_t data){
	uint8_t szerokosc;
	if(((data - 2053) > 0) && ((data - 2053) < 1024)){
    164e:	9c 01       	movw	r18, r24
    1650:	26 50       	subi	r18, 0x06	; 6
    1652:	38 40       	sbci	r19, 0x08	; 8
    1654:	43 e0       	ldi	r20, 0x03	; 3
    1656:	2f 3f       	cpi	r18, 0xFF	; 255
    1658:	34 07       	cpc	r19, r20
    165a:	b8 f4       	brcc	.+46     	; 0x168a <oblicz_szerokosc_paska_napiecie_cela_real+0x3c>
		szerokosc = (uint8_t)((float)(data - 2053)*66.0/1024.0);
    165c:	85 50       	subi	r24, 0x05	; 5
    165e:	98 40       	sbci	r25, 0x08	; 8
    1660:	bc 01       	movw	r22, r24
    1662:	80 e0       	ldi	r24, 0x00	; 0
    1664:	90 e0       	ldi	r25, 0x00	; 0
    1666:	0e 94 ab 0f 	call	0x1f56	; 0x1f56 <__floatunsisf>
    166a:	20 e0       	ldi	r18, 0x00	; 0
    166c:	30 e0       	ldi	r19, 0x00	; 0
    166e:	44 e8       	ldi	r20, 0x84	; 132
    1670:	52 e4       	ldi	r21, 0x42	; 66
    1672:	0e 94 21 0d 	call	0x1a42	; 0x1a42 <__mulsf3>
    1676:	20 e0       	ldi	r18, 0x00	; 0
    1678:	30 e0       	ldi	r19, 0x00	; 0
    167a:	40 e8       	ldi	r20, 0x80	; 128
    167c:	5a e3       	ldi	r21, 0x3A	; 58
    167e:	0e 94 21 0d 	call	0x1a42	; 0x1a42 <__mulsf3>
    1682:	0e 94 4d 0b 	call	0x169a	; 0x169a <__fixunssfsi>
    1686:	86 2f       	mov	r24, r22
		return szerokosc;
    1688:	08 95       	ret
	}
	else if((data - 2053) > 0){
    168a:	28 e0       	ldi	r18, 0x08	; 8
    168c:	85 30       	cpi	r24, 0x05	; 5
    168e:	92 07       	cpc	r25, r18
    1690:	11 f0       	breq	.+4      	; 0x1696 <oblicz_szerokosc_paska_napiecie_cela_real+0x48>
		return 66;
    1692:	82 e4       	ldi	r24, 0x42	; 66
    1694:	08 95       	ret
	}
	else{
		return 0;
    1696:	80 e0       	ldi	r24, 0x00	; 0
	}
}
    1698:	08 95       	ret

0000169a <__fixunssfsi>:
    169a:	ef 92       	push	r14
    169c:	ff 92       	push	r15
    169e:	0f 93       	push	r16
    16a0:	1f 93       	push	r17
    16a2:	7b 01       	movw	r14, r22
    16a4:	8c 01       	movw	r16, r24
    16a6:	20 e0       	ldi	r18, 0x00	; 0
    16a8:	30 e0       	ldi	r19, 0x00	; 0
    16aa:	40 e0       	ldi	r20, 0x00	; 0
    16ac:	5f e4       	ldi	r21, 0x4F	; 79
    16ae:	0e 94 c9 0e 	call	0x1d92	; 0x1d92 <__gesf2>
    16b2:	87 fd       	sbrc	r24, 7
    16b4:	11 c0       	rjmp	.+34     	; 0x16d8 <__fixunssfsi+0x3e>
    16b6:	c8 01       	movw	r24, r16
    16b8:	b7 01       	movw	r22, r14
    16ba:	20 e0       	ldi	r18, 0x00	; 0
    16bc:	30 e0       	ldi	r19, 0x00	; 0
    16be:	40 e0       	ldi	r20, 0x00	; 0
    16c0:	5f e4       	ldi	r21, 0x4F	; 79
    16c2:	0e 94 f0 0c 	call	0x19e0	; 0x19e0 <__subsf3>
    16c6:	0e 94 59 0f 	call	0x1eb2	; 0x1eb2 <__fixsfsi>
    16ca:	9b 01       	movw	r18, r22
    16cc:	ac 01       	movw	r20, r24
    16ce:	20 50       	subi	r18, 0x00	; 0
    16d0:	30 40       	sbci	r19, 0x00	; 0
    16d2:	40 40       	sbci	r20, 0x00	; 0
    16d4:	50 48       	sbci	r21, 0x80	; 128
    16d6:	06 c0       	rjmp	.+12     	; 0x16e4 <__fixunssfsi+0x4a>
    16d8:	c8 01       	movw	r24, r16
    16da:	b7 01       	movw	r22, r14
    16dc:	0e 94 59 0f 	call	0x1eb2	; 0x1eb2 <__fixsfsi>
    16e0:	9b 01       	movw	r18, r22
    16e2:	ac 01       	movw	r20, r24
    16e4:	b9 01       	movw	r22, r18
    16e6:	ca 01       	movw	r24, r20
    16e8:	1f 91       	pop	r17
    16ea:	0f 91       	pop	r16
    16ec:	ff 90       	pop	r15
    16ee:	ef 90       	pop	r14
    16f0:	08 95       	ret

000016f2 <_fpadd_parts>:
    16f2:	a0 e0       	ldi	r26, 0x00	; 0
    16f4:	b0 e0       	ldi	r27, 0x00	; 0
    16f6:	ef e7       	ldi	r30, 0x7F	; 127
    16f8:	fb e0       	ldi	r31, 0x0B	; 11
    16fa:	0c 94 25 12 	jmp	0x244a	; 0x244a <__prologue_saves__+0x8>
    16fe:	fc 01       	movw	r30, r24
    1700:	ea 01       	movw	r28, r20
    1702:	80 81       	ld	r24, Z
    1704:	82 30       	cpi	r24, 0x02	; 2
    1706:	08 f4       	brcc	.+2      	; 0x170a <_fpadd_parts+0x18>
    1708:	38 c1       	rjmp	.+624    	; 0x197a <_fpadd_parts+0x288>
    170a:	db 01       	movw	r26, r22
    170c:	9c 91       	ld	r25, X
    170e:	92 30       	cpi	r25, 0x02	; 2
    1710:	08 f4       	brcc	.+2      	; 0x1714 <_fpadd_parts+0x22>
    1712:	30 c1       	rjmp	.+608    	; 0x1974 <_fpadd_parts+0x282>
    1714:	84 30       	cpi	r24, 0x04	; 4
    1716:	59 f4       	brne	.+22     	; 0x172e <_fpadd_parts+0x3c>
    1718:	94 30       	cpi	r25, 0x04	; 4
    171a:	09 f0       	breq	.+2      	; 0x171e <_fpadd_parts+0x2c>
    171c:	2e c1       	rjmp	.+604    	; 0x197a <_fpadd_parts+0x288>
    171e:	91 81       	ldd	r25, Z+1	; 0x01
    1720:	11 96       	adiw	r26, 0x01	; 1
    1722:	8c 91       	ld	r24, X
    1724:	11 97       	sbiw	r26, 0x01	; 1
    1726:	98 17       	cp	r25, r24
    1728:	09 f0       	breq	.+2      	; 0x172c <_fpadd_parts+0x3a>
    172a:	21 c1       	rjmp	.+578    	; 0x196e <_fpadd_parts+0x27c>
    172c:	26 c1       	rjmp	.+588    	; 0x197a <_fpadd_parts+0x288>
    172e:	94 30       	cpi	r25, 0x04	; 4
    1730:	09 f4       	brne	.+2      	; 0x1734 <_fpadd_parts+0x42>
    1732:	20 c1       	rjmp	.+576    	; 0x1974 <_fpadd_parts+0x282>
    1734:	92 30       	cpi	r25, 0x02	; 2
    1736:	b1 f4       	brne	.+44     	; 0x1764 <_fpadd_parts+0x72>
    1738:	82 30       	cpi	r24, 0x02	; 2
    173a:	09 f0       	breq	.+2      	; 0x173e <_fpadd_parts+0x4c>
    173c:	1e c1       	rjmp	.+572    	; 0x197a <_fpadd_parts+0x288>
    173e:	ca 01       	movw	r24, r20
    1740:	af 01       	movw	r20, r30
    1742:	28 e0       	ldi	r18, 0x08	; 8
    1744:	da 01       	movw	r26, r20
    1746:	0d 90       	ld	r0, X+
    1748:	ad 01       	movw	r20, r26
    174a:	dc 01       	movw	r26, r24
    174c:	0d 92       	st	X+, r0
    174e:	cd 01       	movw	r24, r26
    1750:	21 50       	subi	r18, 0x01	; 1
    1752:	c1 f7       	brne	.-16     	; 0x1744 <_fpadd_parts+0x52>
    1754:	db 01       	movw	r26, r22
    1756:	11 96       	adiw	r26, 0x01	; 1
    1758:	8c 91       	ld	r24, X
    175a:	11 97       	sbiw	r26, 0x01	; 1
    175c:	91 81       	ldd	r25, Z+1	; 0x01
    175e:	89 23       	and	r24, r25
    1760:	89 83       	std	Y+1, r24	; 0x01
    1762:	0a c1       	rjmp	.+532    	; 0x1978 <_fpadd_parts+0x286>
    1764:	82 30       	cpi	r24, 0x02	; 2
    1766:	09 f4       	brne	.+2      	; 0x176a <_fpadd_parts+0x78>
    1768:	05 c1       	rjmp	.+522    	; 0x1974 <_fpadd_parts+0x282>
    176a:	c2 80       	ldd	r12, Z+2	; 0x02
    176c:	d3 80       	ldd	r13, Z+3	; 0x03
    176e:	db 01       	movw	r26, r22
    1770:	12 96       	adiw	r26, 0x02	; 2
    1772:	6d 90       	ld	r6, X+
    1774:	7c 90       	ld	r7, X
    1776:	13 97       	sbiw	r26, 0x03	; 3
    1778:	24 81       	ldd	r18, Z+4	; 0x04
    177a:	35 81       	ldd	r19, Z+5	; 0x05
    177c:	46 81       	ldd	r20, Z+6	; 0x06
    177e:	57 81       	ldd	r21, Z+7	; 0x07
    1780:	14 96       	adiw	r26, 0x04	; 4
    1782:	ed 90       	ld	r14, X+
    1784:	fd 90       	ld	r15, X+
    1786:	0d 91       	ld	r16, X+
    1788:	1c 91       	ld	r17, X
    178a:	17 97       	sbiw	r26, 0x07	; 7
    178c:	c6 01       	movw	r24, r12
    178e:	86 19       	sub	r24, r6
    1790:	97 09       	sbc	r25, r7
    1792:	5c 01       	movw	r10, r24
    1794:	97 ff       	sbrs	r25, 7
    1796:	04 c0       	rjmp	.+8      	; 0x17a0 <_fpadd_parts+0xae>
    1798:	aa 24       	eor	r10, r10
    179a:	bb 24       	eor	r11, r11
    179c:	a8 1a       	sub	r10, r24
    179e:	b9 0a       	sbc	r11, r25
    17a0:	b0 e2       	ldi	r27, 0x20	; 32
    17a2:	ab 16       	cp	r10, r27
    17a4:	b1 04       	cpc	r11, r1
    17a6:	0c f0       	brlt	.+2      	; 0x17aa <_fpadd_parts+0xb8>
    17a8:	61 c0       	rjmp	.+194    	; 0x186c <_fpadd_parts+0x17a>
    17aa:	18 16       	cp	r1, r24
    17ac:	19 06       	cpc	r1, r25
    17ae:	6c f5       	brge	.+90     	; 0x180a <_fpadd_parts+0x118>
    17b0:	37 01       	movw	r6, r14
    17b2:	48 01       	movw	r8, r16
    17b4:	0a 2c       	mov	r0, r10
    17b6:	04 c0       	rjmp	.+8      	; 0x17c0 <_fpadd_parts+0xce>
    17b8:	96 94       	lsr	r9
    17ba:	87 94       	ror	r8
    17bc:	77 94       	ror	r7
    17be:	67 94       	ror	r6
    17c0:	0a 94       	dec	r0
    17c2:	d2 f7       	brpl	.-12     	; 0x17b8 <_fpadd_parts+0xc6>
    17c4:	81 e0       	ldi	r24, 0x01	; 1
    17c6:	90 e0       	ldi	r25, 0x00	; 0
    17c8:	a0 e0       	ldi	r26, 0x00	; 0
    17ca:	b0 e0       	ldi	r27, 0x00	; 0
    17cc:	0a 2c       	mov	r0, r10
    17ce:	04 c0       	rjmp	.+8      	; 0x17d8 <_fpadd_parts+0xe6>
    17d0:	88 0f       	add	r24, r24
    17d2:	99 1f       	adc	r25, r25
    17d4:	aa 1f       	adc	r26, r26
    17d6:	bb 1f       	adc	r27, r27
    17d8:	0a 94       	dec	r0
    17da:	d2 f7       	brpl	.-12     	; 0x17d0 <_fpadd_parts+0xde>
    17dc:	01 97       	sbiw	r24, 0x01	; 1
    17de:	a1 09       	sbc	r26, r1
    17e0:	b1 09       	sbc	r27, r1
    17e2:	8e 21       	and	r24, r14
    17e4:	9f 21       	and	r25, r15
    17e6:	a0 23       	and	r26, r16
    17e8:	b1 23       	and	r27, r17
    17ea:	ee 24       	eor	r14, r14
    17ec:	ff 24       	eor	r15, r15
    17ee:	87 01       	movw	r16, r14
    17f0:	e3 94       	inc	r14
    17f2:	00 97       	sbiw	r24, 0x00	; 0
    17f4:	a1 05       	cpc	r26, r1
    17f6:	b1 05       	cpc	r27, r1
    17f8:	19 f4       	brne	.+6      	; 0x1800 <_fpadd_parts+0x10e>
    17fa:	ee 24       	eor	r14, r14
    17fc:	ff 24       	eor	r15, r15
    17fe:	87 01       	movw	r16, r14
    1800:	e6 28       	or	r14, r6
    1802:	f7 28       	or	r15, r7
    1804:	08 29       	or	r16, r8
    1806:	19 29       	or	r17, r9
    1808:	3c c0       	rjmp	.+120    	; 0x1882 <_fpadd_parts+0x190>
    180a:	00 97       	sbiw	r24, 0x00	; 0
    180c:	d1 f1       	breq	.+116    	; 0x1882 <_fpadd_parts+0x190>
    180e:	ca 0c       	add	r12, r10
    1810:	db 1c       	adc	r13, r11
    1812:	39 01       	movw	r6, r18
    1814:	4a 01       	movw	r8, r20
    1816:	0a 2c       	mov	r0, r10
    1818:	04 c0       	rjmp	.+8      	; 0x1822 <_fpadd_parts+0x130>
    181a:	96 94       	lsr	r9
    181c:	87 94       	ror	r8
    181e:	77 94       	ror	r7
    1820:	67 94       	ror	r6
    1822:	0a 94       	dec	r0
    1824:	d2 f7       	brpl	.-12     	; 0x181a <_fpadd_parts+0x128>
    1826:	81 e0       	ldi	r24, 0x01	; 1
    1828:	90 e0       	ldi	r25, 0x00	; 0
    182a:	a0 e0       	ldi	r26, 0x00	; 0
    182c:	b0 e0       	ldi	r27, 0x00	; 0
    182e:	0a 2c       	mov	r0, r10
    1830:	04 c0       	rjmp	.+8      	; 0x183a <_fpadd_parts+0x148>
    1832:	88 0f       	add	r24, r24
    1834:	99 1f       	adc	r25, r25
    1836:	aa 1f       	adc	r26, r26
    1838:	bb 1f       	adc	r27, r27
    183a:	0a 94       	dec	r0
    183c:	d2 f7       	brpl	.-12     	; 0x1832 <_fpadd_parts+0x140>
    183e:	01 97       	sbiw	r24, 0x01	; 1
    1840:	a1 09       	sbc	r26, r1
    1842:	b1 09       	sbc	r27, r1
    1844:	82 23       	and	r24, r18
    1846:	93 23       	and	r25, r19
    1848:	a4 23       	and	r26, r20
    184a:	b5 23       	and	r27, r21
    184c:	21 e0       	ldi	r18, 0x01	; 1
    184e:	30 e0       	ldi	r19, 0x00	; 0
    1850:	40 e0       	ldi	r20, 0x00	; 0
    1852:	50 e0       	ldi	r21, 0x00	; 0
    1854:	00 97       	sbiw	r24, 0x00	; 0
    1856:	a1 05       	cpc	r26, r1
    1858:	b1 05       	cpc	r27, r1
    185a:	19 f4       	brne	.+6      	; 0x1862 <_fpadd_parts+0x170>
    185c:	20 e0       	ldi	r18, 0x00	; 0
    185e:	30 e0       	ldi	r19, 0x00	; 0
    1860:	a9 01       	movw	r20, r18
    1862:	26 29       	or	r18, r6
    1864:	37 29       	or	r19, r7
    1866:	48 29       	or	r20, r8
    1868:	59 29       	or	r21, r9
    186a:	0b c0       	rjmp	.+22     	; 0x1882 <_fpadd_parts+0x190>
    186c:	6c 14       	cp	r6, r12
    186e:	7d 04       	cpc	r7, r13
    1870:	24 f4       	brge	.+8      	; 0x187a <_fpadd_parts+0x188>
    1872:	ee 24       	eor	r14, r14
    1874:	ff 24       	eor	r15, r15
    1876:	87 01       	movw	r16, r14
    1878:	04 c0       	rjmp	.+8      	; 0x1882 <_fpadd_parts+0x190>
    187a:	63 01       	movw	r12, r6
    187c:	20 e0       	ldi	r18, 0x00	; 0
    187e:	30 e0       	ldi	r19, 0x00	; 0
    1880:	a9 01       	movw	r20, r18
    1882:	81 81       	ldd	r24, Z+1	; 0x01
    1884:	fb 01       	movw	r30, r22
    1886:	91 81       	ldd	r25, Z+1	; 0x01
    1888:	89 17       	cp	r24, r25
    188a:	09 f4       	brne	.+2      	; 0x188e <_fpadd_parts+0x19c>
    188c:	45 c0       	rjmp	.+138    	; 0x1918 <_fpadd_parts+0x226>
    188e:	88 23       	and	r24, r24
    1890:	49 f0       	breq	.+18     	; 0x18a4 <_fpadd_parts+0x1b2>
    1892:	d8 01       	movw	r26, r16
    1894:	c7 01       	movw	r24, r14
    1896:	82 1b       	sub	r24, r18
    1898:	93 0b       	sbc	r25, r19
    189a:	a4 0b       	sbc	r26, r20
    189c:	b5 0b       	sbc	r27, r21
    189e:	9c 01       	movw	r18, r24
    18a0:	ad 01       	movw	r20, r26
    18a2:	04 c0       	rjmp	.+8      	; 0x18ac <_fpadd_parts+0x1ba>
    18a4:	2e 19       	sub	r18, r14
    18a6:	3f 09       	sbc	r19, r15
    18a8:	40 0b       	sbc	r20, r16
    18aa:	51 0b       	sbc	r21, r17
    18ac:	57 fd       	sbrc	r21, 7
    18ae:	04 c0       	rjmp	.+8      	; 0x18b8 <_fpadd_parts+0x1c6>
    18b0:	19 82       	std	Y+1, r1	; 0x01
    18b2:	db 82       	std	Y+3, r13	; 0x03
    18b4:	ca 82       	std	Y+2, r12	; 0x02
    18b6:	0b c0       	rjmp	.+22     	; 0x18ce <_fpadd_parts+0x1dc>
    18b8:	81 e0       	ldi	r24, 0x01	; 1
    18ba:	89 83       	std	Y+1, r24	; 0x01
    18bc:	db 82       	std	Y+3, r13	; 0x03
    18be:	ca 82       	std	Y+2, r12	; 0x02
    18c0:	50 95       	com	r21
    18c2:	40 95       	com	r20
    18c4:	30 95       	com	r19
    18c6:	21 95       	neg	r18
    18c8:	3f 4f       	sbci	r19, 0xFF	; 255
    18ca:	4f 4f       	sbci	r20, 0xFF	; 255
    18cc:	5f 4f       	sbci	r21, 0xFF	; 255
    18ce:	2c 83       	std	Y+4, r18	; 0x04
    18d0:	3d 83       	std	Y+5, r19	; 0x05
    18d2:	4e 83       	std	Y+6, r20	; 0x06
    18d4:	5f 83       	std	Y+7, r21	; 0x07
    18d6:	0d c0       	rjmp	.+26     	; 0x18f2 <_fpadd_parts+0x200>
    18d8:	88 0f       	add	r24, r24
    18da:	99 1f       	adc	r25, r25
    18dc:	aa 1f       	adc	r26, r26
    18de:	bb 1f       	adc	r27, r27
    18e0:	8c 83       	std	Y+4, r24	; 0x04
    18e2:	9d 83       	std	Y+5, r25	; 0x05
    18e4:	ae 83       	std	Y+6, r26	; 0x06
    18e6:	bf 83       	std	Y+7, r27	; 0x07
    18e8:	8a 81       	ldd	r24, Y+2	; 0x02
    18ea:	9b 81       	ldd	r25, Y+3	; 0x03
    18ec:	01 97       	sbiw	r24, 0x01	; 1
    18ee:	9b 83       	std	Y+3, r25	; 0x03
    18f0:	8a 83       	std	Y+2, r24	; 0x02
    18f2:	8c 81       	ldd	r24, Y+4	; 0x04
    18f4:	9d 81       	ldd	r25, Y+5	; 0x05
    18f6:	ae 81       	ldd	r26, Y+6	; 0x06
    18f8:	bf 81       	ldd	r27, Y+7	; 0x07
    18fa:	9c 01       	movw	r18, r24
    18fc:	ad 01       	movw	r20, r26
    18fe:	21 50       	subi	r18, 0x01	; 1
    1900:	30 40       	sbci	r19, 0x00	; 0
    1902:	40 40       	sbci	r20, 0x00	; 0
    1904:	50 40       	sbci	r21, 0x00	; 0
    1906:	2f 3f       	cpi	r18, 0xFF	; 255
    1908:	ef ef       	ldi	r30, 0xFF	; 255
    190a:	3e 07       	cpc	r19, r30
    190c:	ef ef       	ldi	r30, 0xFF	; 255
    190e:	4e 07       	cpc	r20, r30
    1910:	ef e3       	ldi	r30, 0x3F	; 63
    1912:	5e 07       	cpc	r21, r30
    1914:	08 f3       	brcs	.-62     	; 0x18d8 <_fpadd_parts+0x1e6>
    1916:	0b c0       	rjmp	.+22     	; 0x192e <_fpadd_parts+0x23c>
    1918:	89 83       	std	Y+1, r24	; 0x01
    191a:	db 82       	std	Y+3, r13	; 0x03
    191c:	ca 82       	std	Y+2, r12	; 0x02
    191e:	2e 0d       	add	r18, r14
    1920:	3f 1d       	adc	r19, r15
    1922:	40 1f       	adc	r20, r16
    1924:	51 1f       	adc	r21, r17
    1926:	2c 83       	std	Y+4, r18	; 0x04
    1928:	3d 83       	std	Y+5, r19	; 0x05
    192a:	4e 83       	std	Y+6, r20	; 0x06
    192c:	5f 83       	std	Y+7, r21	; 0x07
    192e:	83 e0       	ldi	r24, 0x03	; 3
    1930:	88 83       	st	Y, r24
    1932:	2c 81       	ldd	r18, Y+4	; 0x04
    1934:	3d 81       	ldd	r19, Y+5	; 0x05
    1936:	4e 81       	ldd	r20, Y+6	; 0x06
    1938:	5f 81       	ldd	r21, Y+7	; 0x07
    193a:	57 ff       	sbrs	r21, 7
    193c:	1d c0       	rjmp	.+58     	; 0x1978 <_fpadd_parts+0x286>
    193e:	da 01       	movw	r26, r20
    1940:	c9 01       	movw	r24, r18
    1942:	81 70       	andi	r24, 0x01	; 1
    1944:	90 70       	andi	r25, 0x00	; 0
    1946:	a0 70       	andi	r26, 0x00	; 0
    1948:	b0 70       	andi	r27, 0x00	; 0
    194a:	56 95       	lsr	r21
    194c:	47 95       	ror	r20
    194e:	37 95       	ror	r19
    1950:	27 95       	ror	r18
    1952:	82 2b       	or	r24, r18
    1954:	93 2b       	or	r25, r19
    1956:	a4 2b       	or	r26, r20
    1958:	b5 2b       	or	r27, r21
    195a:	8c 83       	std	Y+4, r24	; 0x04
    195c:	9d 83       	std	Y+5, r25	; 0x05
    195e:	ae 83       	std	Y+6, r26	; 0x06
    1960:	bf 83       	std	Y+7, r27	; 0x07
    1962:	8a 81       	ldd	r24, Y+2	; 0x02
    1964:	9b 81       	ldd	r25, Y+3	; 0x03
    1966:	01 96       	adiw	r24, 0x01	; 1
    1968:	9b 83       	std	Y+3, r25	; 0x03
    196a:	8a 83       	std	Y+2, r24	; 0x02
    196c:	05 c0       	rjmp	.+10     	; 0x1978 <_fpadd_parts+0x286>
    196e:	e6 e3       	ldi	r30, 0x36	; 54
    1970:	f1 e0       	ldi	r31, 0x01	; 1
    1972:	03 c0       	rjmp	.+6      	; 0x197a <_fpadd_parts+0x288>
    1974:	fb 01       	movw	r30, r22
    1976:	01 c0       	rjmp	.+2      	; 0x197a <_fpadd_parts+0x288>
    1978:	fe 01       	movw	r30, r28
    197a:	cf 01       	movw	r24, r30
    197c:	cd b7       	in	r28, 0x3d	; 61
    197e:	de b7       	in	r29, 0x3e	; 62
    1980:	ee e0       	ldi	r30, 0x0E	; 14
    1982:	0c 94 41 12 	jmp	0x2482	; 0x2482 <__epilogue_restores__+0x8>

00001986 <__addsf3>:
    1986:	a0 e2       	ldi	r26, 0x20	; 32
    1988:	b0 e0       	ldi	r27, 0x00	; 0
    198a:	e9 ec       	ldi	r30, 0xC9	; 201
    198c:	fc e0       	ldi	r31, 0x0C	; 12
    198e:	0c 94 2d 12 	jmp	0x245a	; 0x245a <__prologue_saves__+0x18>
    1992:	69 83       	std	Y+1, r22	; 0x01
    1994:	7a 83       	std	Y+2, r23	; 0x02
    1996:	8b 83       	std	Y+3, r24	; 0x03
    1998:	9c 83       	std	Y+4, r25	; 0x04
    199a:	2d 83       	std	Y+5, r18	; 0x05
    199c:	3e 83       	std	Y+6, r19	; 0x06
    199e:	4f 83       	std	Y+7, r20	; 0x07
    19a0:	58 87       	std	Y+8, r21	; 0x08
    19a2:	89 e0       	ldi	r24, 0x09	; 9
    19a4:	e8 2e       	mov	r14, r24
    19a6:	f1 2c       	mov	r15, r1
    19a8:	ec 0e       	add	r14, r28
    19aa:	fd 1e       	adc	r15, r29
    19ac:	ce 01       	movw	r24, r28
    19ae:	01 96       	adiw	r24, 0x01	; 1
    19b0:	b7 01       	movw	r22, r14
    19b2:	0e 94 4b 11 	call	0x2296	; 0x2296 <__unpack_f>
    19b6:	8e 01       	movw	r16, r28
    19b8:	0f 5e       	subi	r16, 0xEF	; 239
    19ba:	1f 4f       	sbci	r17, 0xFF	; 255
    19bc:	ce 01       	movw	r24, r28
    19be:	05 96       	adiw	r24, 0x05	; 5
    19c0:	b8 01       	movw	r22, r16
    19c2:	0e 94 4b 11 	call	0x2296	; 0x2296 <__unpack_f>
    19c6:	c7 01       	movw	r24, r14
    19c8:	b8 01       	movw	r22, r16
    19ca:	ae 01       	movw	r20, r28
    19cc:	47 5e       	subi	r20, 0xE7	; 231
    19ce:	5f 4f       	sbci	r21, 0xFF	; 255
    19d0:	0e 94 79 0b 	call	0x16f2	; 0x16f2 <_fpadd_parts>
    19d4:	0e 94 7d 10 	call	0x20fa	; 0x20fa <__pack_f>
    19d8:	a0 96       	adiw	r28, 0x20	; 32
    19da:	e6 e0       	ldi	r30, 0x06	; 6
    19dc:	0c 94 49 12 	jmp	0x2492	; 0x2492 <__epilogue_restores__+0x18>

000019e0 <__subsf3>:
    19e0:	a0 e2       	ldi	r26, 0x20	; 32
    19e2:	b0 e0       	ldi	r27, 0x00	; 0
    19e4:	e6 ef       	ldi	r30, 0xF6	; 246
    19e6:	fc e0       	ldi	r31, 0x0C	; 12
    19e8:	0c 94 2d 12 	jmp	0x245a	; 0x245a <__prologue_saves__+0x18>
    19ec:	69 83       	std	Y+1, r22	; 0x01
    19ee:	7a 83       	std	Y+2, r23	; 0x02
    19f0:	8b 83       	std	Y+3, r24	; 0x03
    19f2:	9c 83       	std	Y+4, r25	; 0x04
    19f4:	2d 83       	std	Y+5, r18	; 0x05
    19f6:	3e 83       	std	Y+6, r19	; 0x06
    19f8:	4f 83       	std	Y+7, r20	; 0x07
    19fa:	58 87       	std	Y+8, r21	; 0x08
    19fc:	8e 01       	movw	r16, r28
    19fe:	07 5f       	subi	r16, 0xF7	; 247
    1a00:	1f 4f       	sbci	r17, 0xFF	; 255
    1a02:	ce 01       	movw	r24, r28
    1a04:	01 96       	adiw	r24, 0x01	; 1
    1a06:	b8 01       	movw	r22, r16
    1a08:	0e 94 4b 11 	call	0x2296	; 0x2296 <__unpack_f>
    1a0c:	91 e1       	ldi	r25, 0x11	; 17
    1a0e:	e9 2e       	mov	r14, r25
    1a10:	f1 2c       	mov	r15, r1
    1a12:	ec 0e       	add	r14, r28
    1a14:	fd 1e       	adc	r15, r29
    1a16:	ce 01       	movw	r24, r28
    1a18:	05 96       	adiw	r24, 0x05	; 5
    1a1a:	b7 01       	movw	r22, r14
    1a1c:	0e 94 4b 11 	call	0x2296	; 0x2296 <__unpack_f>
    1a20:	8a 89       	ldd	r24, Y+18	; 0x12
    1a22:	91 e0       	ldi	r25, 0x01	; 1
    1a24:	89 27       	eor	r24, r25
    1a26:	8a 8b       	std	Y+18, r24	; 0x12
    1a28:	c8 01       	movw	r24, r16
    1a2a:	b7 01       	movw	r22, r14
    1a2c:	ae 01       	movw	r20, r28
    1a2e:	47 5e       	subi	r20, 0xE7	; 231
    1a30:	5f 4f       	sbci	r21, 0xFF	; 255
    1a32:	0e 94 79 0b 	call	0x16f2	; 0x16f2 <_fpadd_parts>
    1a36:	0e 94 7d 10 	call	0x20fa	; 0x20fa <__pack_f>
    1a3a:	a0 96       	adiw	r28, 0x20	; 32
    1a3c:	e6 e0       	ldi	r30, 0x06	; 6
    1a3e:	0c 94 49 12 	jmp	0x2492	; 0x2492 <__epilogue_restores__+0x18>

00001a42 <__mulsf3>:
    1a42:	a0 e2       	ldi	r26, 0x20	; 32
    1a44:	b0 e0       	ldi	r27, 0x00	; 0
    1a46:	e7 e2       	ldi	r30, 0x27	; 39
    1a48:	fd e0       	ldi	r31, 0x0D	; 13
    1a4a:	0c 94 21 12 	jmp	0x2442	; 0x2442 <__prologue_saves__>
    1a4e:	69 83       	std	Y+1, r22	; 0x01
    1a50:	7a 83       	std	Y+2, r23	; 0x02
    1a52:	8b 83       	std	Y+3, r24	; 0x03
    1a54:	9c 83       	std	Y+4, r25	; 0x04
    1a56:	2d 83       	std	Y+5, r18	; 0x05
    1a58:	3e 83       	std	Y+6, r19	; 0x06
    1a5a:	4f 83       	std	Y+7, r20	; 0x07
    1a5c:	58 87       	std	Y+8, r21	; 0x08
    1a5e:	ce 01       	movw	r24, r28
    1a60:	01 96       	adiw	r24, 0x01	; 1
    1a62:	be 01       	movw	r22, r28
    1a64:	67 5f       	subi	r22, 0xF7	; 247
    1a66:	7f 4f       	sbci	r23, 0xFF	; 255
    1a68:	0e 94 4b 11 	call	0x2296	; 0x2296 <__unpack_f>
    1a6c:	ce 01       	movw	r24, r28
    1a6e:	05 96       	adiw	r24, 0x05	; 5
    1a70:	be 01       	movw	r22, r28
    1a72:	6f 5e       	subi	r22, 0xEF	; 239
    1a74:	7f 4f       	sbci	r23, 0xFF	; 255
    1a76:	0e 94 4b 11 	call	0x2296	; 0x2296 <__unpack_f>
    1a7a:	99 85       	ldd	r25, Y+9	; 0x09
    1a7c:	92 30       	cpi	r25, 0x02	; 2
    1a7e:	78 f0       	brcs	.+30     	; 0x1a9e <__mulsf3+0x5c>
    1a80:	89 89       	ldd	r24, Y+17	; 0x11
    1a82:	82 30       	cpi	r24, 0x02	; 2
    1a84:	c0 f0       	brcs	.+48     	; 0x1ab6 <__mulsf3+0x74>
    1a86:	94 30       	cpi	r25, 0x04	; 4
    1a88:	19 f4       	brne	.+6      	; 0x1a90 <__mulsf3+0x4e>
    1a8a:	82 30       	cpi	r24, 0x02	; 2
    1a8c:	41 f4       	brne	.+16     	; 0x1a9e <__mulsf3+0x5c>
    1a8e:	cb c0       	rjmp	.+406    	; 0x1c26 <__mulsf3+0x1e4>
    1a90:	84 30       	cpi	r24, 0x04	; 4
    1a92:	19 f4       	brne	.+6      	; 0x1a9a <__mulsf3+0x58>
    1a94:	92 30       	cpi	r25, 0x02	; 2
    1a96:	79 f4       	brne	.+30     	; 0x1ab6 <__mulsf3+0x74>
    1a98:	c6 c0       	rjmp	.+396    	; 0x1c26 <__mulsf3+0x1e4>
    1a9a:	92 30       	cpi	r25, 0x02	; 2
    1a9c:	51 f4       	brne	.+20     	; 0x1ab2 <__mulsf3+0x70>
    1a9e:	81 e0       	ldi	r24, 0x01	; 1
    1aa0:	2a 85       	ldd	r18, Y+10	; 0x0a
    1aa2:	9a 89       	ldd	r25, Y+18	; 0x12
    1aa4:	29 17       	cp	r18, r25
    1aa6:	09 f4       	brne	.+2      	; 0x1aaa <__mulsf3+0x68>
    1aa8:	80 e0       	ldi	r24, 0x00	; 0
    1aaa:	8a 87       	std	Y+10, r24	; 0x0a
    1aac:	ce 01       	movw	r24, r28
    1aae:	09 96       	adiw	r24, 0x09	; 9
    1ab0:	bc c0       	rjmp	.+376    	; 0x1c2a <__mulsf3+0x1e8>
    1ab2:	82 30       	cpi	r24, 0x02	; 2
    1ab4:	51 f4       	brne	.+20     	; 0x1aca <__mulsf3+0x88>
    1ab6:	81 e0       	ldi	r24, 0x01	; 1
    1ab8:	2a 85       	ldd	r18, Y+10	; 0x0a
    1aba:	9a 89       	ldd	r25, Y+18	; 0x12
    1abc:	29 17       	cp	r18, r25
    1abe:	09 f4       	brne	.+2      	; 0x1ac2 <__mulsf3+0x80>
    1ac0:	80 e0       	ldi	r24, 0x00	; 0
    1ac2:	8a 8b       	std	Y+18, r24	; 0x12
    1ac4:	ce 01       	movw	r24, r28
    1ac6:	41 96       	adiw	r24, 0x11	; 17
    1ac8:	b0 c0       	rjmp	.+352    	; 0x1c2a <__mulsf3+0x1e8>
    1aca:	6d 84       	ldd	r6, Y+13	; 0x0d
    1acc:	7e 84       	ldd	r7, Y+14	; 0x0e
    1ace:	8f 84       	ldd	r8, Y+15	; 0x0f
    1ad0:	98 88       	ldd	r9, Y+16	; 0x10
    1ad2:	ed 88       	ldd	r14, Y+21	; 0x15
    1ad4:	fe 88       	ldd	r15, Y+22	; 0x16
    1ad6:	0f 89       	ldd	r16, Y+23	; 0x17
    1ad8:	18 8d       	ldd	r17, Y+24	; 0x18
    1ada:	e0 e2       	ldi	r30, 0x20	; 32
    1adc:	f0 e0       	ldi	r31, 0x00	; 0
    1ade:	80 e0       	ldi	r24, 0x00	; 0
    1ae0:	90 e0       	ldi	r25, 0x00	; 0
    1ae2:	dc 01       	movw	r26, r24
    1ae4:	aa 24       	eor	r10, r10
    1ae6:	bb 24       	eor	r11, r11
    1ae8:	65 01       	movw	r12, r10
    1aea:	20 e0       	ldi	r18, 0x00	; 0
    1aec:	30 e0       	ldi	r19, 0x00	; 0
    1aee:	a9 01       	movw	r20, r18
    1af0:	b3 01       	movw	r22, r6
    1af2:	61 70       	andi	r22, 0x01	; 1
    1af4:	70 70       	andi	r23, 0x00	; 0
    1af6:	61 15       	cp	r22, r1
    1af8:	71 05       	cpc	r23, r1
    1afa:	d1 f0       	breq	.+52     	; 0x1b30 <__mulsf3+0xee>
    1afc:	2e 0d       	add	r18, r14
    1afe:	3f 1d       	adc	r19, r15
    1b00:	40 1f       	adc	r20, r16
    1b02:	51 1f       	adc	r21, r17
    1b04:	15 01       	movw	r2, r10
    1b06:	26 01       	movw	r4, r12
    1b08:	28 0e       	add	r2, r24
    1b0a:	39 1e       	adc	r3, r25
    1b0c:	4a 1e       	adc	r4, r26
    1b0e:	5b 1e       	adc	r5, r27
    1b10:	81 e0       	ldi	r24, 0x01	; 1
    1b12:	90 e0       	ldi	r25, 0x00	; 0
    1b14:	a0 e0       	ldi	r26, 0x00	; 0
    1b16:	b0 e0       	ldi	r27, 0x00	; 0
    1b18:	2e 15       	cp	r18, r14
    1b1a:	3f 05       	cpc	r19, r15
    1b1c:	40 07       	cpc	r20, r16
    1b1e:	51 07       	cpc	r21, r17
    1b20:	18 f0       	brcs	.+6      	; 0x1b28 <__mulsf3+0xe6>
    1b22:	80 e0       	ldi	r24, 0x00	; 0
    1b24:	90 e0       	ldi	r25, 0x00	; 0
    1b26:	dc 01       	movw	r26, r24
    1b28:	82 0d       	add	r24, r2
    1b2a:	93 1d       	adc	r25, r3
    1b2c:	a4 1d       	adc	r26, r4
    1b2e:	b5 1d       	adc	r27, r5
    1b30:	aa 0c       	add	r10, r10
    1b32:	bb 1c       	adc	r11, r11
    1b34:	cc 1c       	adc	r12, r12
    1b36:	dd 1c       	adc	r13, r13
    1b38:	17 ff       	sbrs	r17, 7
    1b3a:	09 c0       	rjmp	.+18     	; 0x1b4e <__mulsf3+0x10c>
    1b3c:	61 e0       	ldi	r22, 0x01	; 1
    1b3e:	26 2e       	mov	r2, r22
    1b40:	31 2c       	mov	r3, r1
    1b42:	41 2c       	mov	r4, r1
    1b44:	51 2c       	mov	r5, r1
    1b46:	a2 28       	or	r10, r2
    1b48:	b3 28       	or	r11, r3
    1b4a:	c4 28       	or	r12, r4
    1b4c:	d5 28       	or	r13, r5
    1b4e:	31 97       	sbiw	r30, 0x01	; 1
    1b50:	49 f0       	breq	.+18     	; 0x1b64 <__mulsf3+0x122>
    1b52:	ee 0c       	add	r14, r14
    1b54:	ff 1c       	adc	r15, r15
    1b56:	00 1f       	adc	r16, r16
    1b58:	11 1f       	adc	r17, r17
    1b5a:	96 94       	lsr	r9
    1b5c:	87 94       	ror	r8
    1b5e:	77 94       	ror	r7
    1b60:	67 94       	ror	r6
    1b62:	c6 cf       	rjmp	.-116    	; 0x1af0 <__mulsf3+0xae>
    1b64:	6b 89       	ldd	r22, Y+19	; 0x13
    1b66:	7c 89       	ldd	r23, Y+20	; 0x14
    1b68:	eb 85       	ldd	r30, Y+11	; 0x0b
    1b6a:	fc 85       	ldd	r31, Y+12	; 0x0c
    1b6c:	6e 0f       	add	r22, r30
    1b6e:	7f 1f       	adc	r23, r31
    1b70:	6e 5f       	subi	r22, 0xFE	; 254
    1b72:	7f 4f       	sbci	r23, 0xFF	; 255
    1b74:	7c 8f       	std	Y+28, r23	; 0x1c
    1b76:	6b 8f       	std	Y+27, r22	; 0x1b
    1b78:	61 e0       	ldi	r22, 0x01	; 1
    1b7a:	ea 85       	ldd	r30, Y+10	; 0x0a
    1b7c:	7a 89       	ldd	r23, Y+18	; 0x12
    1b7e:	e7 17       	cp	r30, r23
    1b80:	09 f4       	brne	.+2      	; 0x1b84 <__mulsf3+0x142>
    1b82:	60 e0       	ldi	r22, 0x00	; 0
    1b84:	6a 8f       	std	Y+26, r22	; 0x1a
    1b86:	6b 8d       	ldd	r22, Y+27	; 0x1b
    1b88:	7c 8d       	ldd	r23, Y+28	; 0x1c
    1b8a:	10 c0       	rjmp	.+32     	; 0x1bac <__mulsf3+0x16a>
    1b8c:	fc 01       	movw	r30, r24
    1b8e:	e1 70       	andi	r30, 0x01	; 1
    1b90:	f0 70       	andi	r31, 0x00	; 0
    1b92:	30 97       	sbiw	r30, 0x00	; 0
    1b94:	29 f0       	breq	.+10     	; 0x1ba0 <__mulsf3+0x15e>
    1b96:	56 95       	lsr	r21
    1b98:	47 95       	ror	r20
    1b9a:	37 95       	ror	r19
    1b9c:	27 95       	ror	r18
    1b9e:	50 68       	ori	r21, 0x80	; 128
    1ba0:	b6 95       	lsr	r27
    1ba2:	a7 95       	ror	r26
    1ba4:	97 95       	ror	r25
    1ba6:	87 95       	ror	r24
    1ba8:	6f 5f       	subi	r22, 0xFF	; 255
    1baa:	7f 4f       	sbci	r23, 0xFF	; 255
    1bac:	b7 fd       	sbrc	r27, 7
    1bae:	ee cf       	rjmp	.-36     	; 0x1b8c <__mulsf3+0x14a>
    1bb0:	0c c0       	rjmp	.+24     	; 0x1bca <__mulsf3+0x188>
    1bb2:	88 0f       	add	r24, r24
    1bb4:	99 1f       	adc	r25, r25
    1bb6:	aa 1f       	adc	r26, r26
    1bb8:	bb 1f       	adc	r27, r27
    1bba:	57 fd       	sbrc	r21, 7
    1bbc:	81 60       	ori	r24, 0x01	; 1
    1bbe:	22 0f       	add	r18, r18
    1bc0:	33 1f       	adc	r19, r19
    1bc2:	44 1f       	adc	r20, r20
    1bc4:	55 1f       	adc	r21, r21
    1bc6:	61 50       	subi	r22, 0x01	; 1
    1bc8:	70 40       	sbci	r23, 0x00	; 0
    1bca:	80 30       	cpi	r24, 0x00	; 0
    1bcc:	e0 e0       	ldi	r30, 0x00	; 0
    1bce:	9e 07       	cpc	r25, r30
    1bd0:	e0 e0       	ldi	r30, 0x00	; 0
    1bd2:	ae 07       	cpc	r26, r30
    1bd4:	e0 e4       	ldi	r30, 0x40	; 64
    1bd6:	be 07       	cpc	r27, r30
    1bd8:	60 f3       	brcs	.-40     	; 0x1bb2 <__mulsf3+0x170>
    1bda:	6b 8f       	std	Y+27, r22	; 0x1b
    1bdc:	7c 8f       	std	Y+28, r23	; 0x1c
    1bde:	6f e7       	ldi	r22, 0x7F	; 127
    1be0:	e6 2e       	mov	r14, r22
    1be2:	f1 2c       	mov	r15, r1
    1be4:	01 2d       	mov	r16, r1
    1be6:	11 2d       	mov	r17, r1
    1be8:	e8 22       	and	r14, r24
    1bea:	f9 22       	and	r15, r25
    1bec:	0a 23       	and	r16, r26
    1bee:	1b 23       	and	r17, r27
    1bf0:	60 e4       	ldi	r22, 0x40	; 64
    1bf2:	e6 16       	cp	r14, r22
    1bf4:	f1 04       	cpc	r15, r1
    1bf6:	01 05       	cpc	r16, r1
    1bf8:	11 05       	cpc	r17, r1
    1bfa:	61 f4       	brne	.+24     	; 0x1c14 <__mulsf3+0x1d2>
    1bfc:	87 fd       	sbrc	r24, 7
    1bfe:	0a c0       	rjmp	.+20     	; 0x1c14 <__mulsf3+0x1d2>
    1c00:	21 15       	cp	r18, r1
    1c02:	31 05       	cpc	r19, r1
    1c04:	41 05       	cpc	r20, r1
    1c06:	51 05       	cpc	r21, r1
    1c08:	29 f0       	breq	.+10     	; 0x1c14 <__mulsf3+0x1d2>
    1c0a:	80 5c       	subi	r24, 0xC0	; 192
    1c0c:	9f 4f       	sbci	r25, 0xFF	; 255
    1c0e:	af 4f       	sbci	r26, 0xFF	; 255
    1c10:	bf 4f       	sbci	r27, 0xFF	; 255
    1c12:	80 78       	andi	r24, 0x80	; 128
    1c14:	8d 8f       	std	Y+29, r24	; 0x1d
    1c16:	9e 8f       	std	Y+30, r25	; 0x1e
    1c18:	af 8f       	std	Y+31, r26	; 0x1f
    1c1a:	b8 a3       	std	Y+32, r27	; 0x20
    1c1c:	83 e0       	ldi	r24, 0x03	; 3
    1c1e:	89 8f       	std	Y+25, r24	; 0x19
    1c20:	ce 01       	movw	r24, r28
    1c22:	49 96       	adiw	r24, 0x19	; 25
    1c24:	02 c0       	rjmp	.+4      	; 0x1c2a <__mulsf3+0x1e8>
    1c26:	86 e3       	ldi	r24, 0x36	; 54
    1c28:	91 e0       	ldi	r25, 0x01	; 1
    1c2a:	0e 94 7d 10 	call	0x20fa	; 0x20fa <__pack_f>
    1c2e:	a0 96       	adiw	r28, 0x20	; 32
    1c30:	e2 e1       	ldi	r30, 0x12	; 18
    1c32:	0c 94 3d 12 	jmp	0x247a	; 0x247a <__epilogue_restores__>

00001c36 <__divsf3>:
    1c36:	a8 e1       	ldi	r26, 0x18	; 24
    1c38:	b0 e0       	ldi	r27, 0x00	; 0
    1c3a:	e1 e2       	ldi	r30, 0x21	; 33
    1c3c:	fe e0       	ldi	r31, 0x0E	; 14
    1c3e:	0c 94 29 12 	jmp	0x2452	; 0x2452 <__prologue_saves__+0x10>
    1c42:	69 83       	std	Y+1, r22	; 0x01
    1c44:	7a 83       	std	Y+2, r23	; 0x02
    1c46:	8b 83       	std	Y+3, r24	; 0x03
    1c48:	9c 83       	std	Y+4, r25	; 0x04
    1c4a:	2d 83       	std	Y+5, r18	; 0x05
    1c4c:	3e 83       	std	Y+6, r19	; 0x06
    1c4e:	4f 83       	std	Y+7, r20	; 0x07
    1c50:	58 87       	std	Y+8, r21	; 0x08
    1c52:	8e 01       	movw	r16, r28
    1c54:	07 5f       	subi	r16, 0xF7	; 247
    1c56:	1f 4f       	sbci	r17, 0xFF	; 255
    1c58:	ce 01       	movw	r24, r28
    1c5a:	01 96       	adiw	r24, 0x01	; 1
    1c5c:	b8 01       	movw	r22, r16
    1c5e:	0e 94 4b 11 	call	0x2296	; 0x2296 <__unpack_f>
    1c62:	81 e1       	ldi	r24, 0x11	; 17
    1c64:	e8 2e       	mov	r14, r24
    1c66:	f1 2c       	mov	r15, r1
    1c68:	ec 0e       	add	r14, r28
    1c6a:	fd 1e       	adc	r15, r29
    1c6c:	ce 01       	movw	r24, r28
    1c6e:	05 96       	adiw	r24, 0x05	; 5
    1c70:	b7 01       	movw	r22, r14
    1c72:	0e 94 4b 11 	call	0x2296	; 0x2296 <__unpack_f>
    1c76:	99 85       	ldd	r25, Y+9	; 0x09
    1c78:	92 30       	cpi	r25, 0x02	; 2
    1c7a:	08 f4       	brcc	.+2      	; 0x1c7e <__divsf3+0x48>
    1c7c:	83 c0       	rjmp	.+262    	; 0x1d84 <__divsf3+0x14e>
    1c7e:	89 89       	ldd	r24, Y+17	; 0x11
    1c80:	82 30       	cpi	r24, 0x02	; 2
    1c82:	08 f4       	brcc	.+2      	; 0x1c86 <__divsf3+0x50>
    1c84:	7b c0       	rjmp	.+246    	; 0x1d7c <__divsf3+0x146>
    1c86:	2a 85       	ldd	r18, Y+10	; 0x0a
    1c88:	3a 89       	ldd	r19, Y+18	; 0x12
    1c8a:	23 27       	eor	r18, r19
    1c8c:	2a 87       	std	Y+10, r18	; 0x0a
    1c8e:	94 30       	cpi	r25, 0x04	; 4
    1c90:	11 f0       	breq	.+4      	; 0x1c96 <__divsf3+0x60>
    1c92:	92 30       	cpi	r25, 0x02	; 2
    1c94:	21 f4       	brne	.+8      	; 0x1c9e <__divsf3+0x68>
    1c96:	98 17       	cp	r25, r24
    1c98:	09 f0       	breq	.+2      	; 0x1c9c <__divsf3+0x66>
    1c9a:	6c c0       	rjmp	.+216    	; 0x1d74 <__divsf3+0x13e>
    1c9c:	71 c0       	rjmp	.+226    	; 0x1d80 <__divsf3+0x14a>
    1c9e:	84 30       	cpi	r24, 0x04	; 4
    1ca0:	39 f4       	brne	.+14     	; 0x1cb0 <__divsf3+0x7a>
    1ca2:	1d 86       	std	Y+13, r1	; 0x0d
    1ca4:	1e 86       	std	Y+14, r1	; 0x0e
    1ca6:	1f 86       	std	Y+15, r1	; 0x0f
    1ca8:	18 8a       	std	Y+16, r1	; 0x10
    1caa:	1c 86       	std	Y+12, r1	; 0x0c
    1cac:	1b 86       	std	Y+11, r1	; 0x0b
    1cae:	6a c0       	rjmp	.+212    	; 0x1d84 <__divsf3+0x14e>
    1cb0:	82 30       	cpi	r24, 0x02	; 2
    1cb2:	19 f4       	brne	.+6      	; 0x1cba <__divsf3+0x84>
    1cb4:	84 e0       	ldi	r24, 0x04	; 4
    1cb6:	89 87       	std	Y+9, r24	; 0x09
    1cb8:	65 c0       	rjmp	.+202    	; 0x1d84 <__divsf3+0x14e>
    1cba:	8b 85       	ldd	r24, Y+11	; 0x0b
    1cbc:	9c 85       	ldd	r25, Y+12	; 0x0c
    1cbe:	2b 89       	ldd	r18, Y+19	; 0x13
    1cc0:	3c 89       	ldd	r19, Y+20	; 0x14
    1cc2:	82 1b       	sub	r24, r18
    1cc4:	93 0b       	sbc	r25, r19
    1cc6:	9c 87       	std	Y+12, r25	; 0x0c
    1cc8:	8b 87       	std	Y+11, r24	; 0x0b
    1cca:	2d 85       	ldd	r18, Y+13	; 0x0d
    1ccc:	3e 85       	ldd	r19, Y+14	; 0x0e
    1cce:	4f 85       	ldd	r20, Y+15	; 0x0f
    1cd0:	58 89       	ldd	r21, Y+16	; 0x10
    1cd2:	ed 88       	ldd	r14, Y+21	; 0x15
    1cd4:	fe 88       	ldd	r15, Y+22	; 0x16
    1cd6:	0f 89       	ldd	r16, Y+23	; 0x17
    1cd8:	18 8d       	ldd	r17, Y+24	; 0x18
    1cda:	2e 15       	cp	r18, r14
    1cdc:	3f 05       	cpc	r19, r15
    1cde:	40 07       	cpc	r20, r16
    1ce0:	51 07       	cpc	r21, r17
    1ce2:	38 f4       	brcc	.+14     	; 0x1cf2 <__divsf3+0xbc>
    1ce4:	22 0f       	add	r18, r18
    1ce6:	33 1f       	adc	r19, r19
    1ce8:	44 1f       	adc	r20, r20
    1cea:	55 1f       	adc	r21, r21
    1cec:	01 97       	sbiw	r24, 0x01	; 1
    1cee:	9c 87       	std	Y+12, r25	; 0x0c
    1cf0:	8b 87       	std	Y+11, r24	; 0x0b
    1cf2:	6f e1       	ldi	r22, 0x1F	; 31
    1cf4:	70 e0       	ldi	r23, 0x00	; 0
    1cf6:	a1 2c       	mov	r10, r1
    1cf8:	b1 2c       	mov	r11, r1
    1cfa:	c1 2c       	mov	r12, r1
    1cfc:	a0 e4       	ldi	r26, 0x40	; 64
    1cfe:	da 2e       	mov	r13, r26
    1d00:	80 e0       	ldi	r24, 0x00	; 0
    1d02:	90 e0       	ldi	r25, 0x00	; 0
    1d04:	dc 01       	movw	r26, r24
    1d06:	2e 15       	cp	r18, r14
    1d08:	3f 05       	cpc	r19, r15
    1d0a:	40 07       	cpc	r20, r16
    1d0c:	51 07       	cpc	r21, r17
    1d0e:	40 f0       	brcs	.+16     	; 0x1d20 <__divsf3+0xea>
    1d10:	8a 29       	or	r24, r10
    1d12:	9b 29       	or	r25, r11
    1d14:	ac 29       	or	r26, r12
    1d16:	bd 29       	or	r27, r13
    1d18:	2e 19       	sub	r18, r14
    1d1a:	3f 09       	sbc	r19, r15
    1d1c:	40 0b       	sbc	r20, r16
    1d1e:	51 0b       	sbc	r21, r17
    1d20:	d6 94       	lsr	r13
    1d22:	c7 94       	ror	r12
    1d24:	b7 94       	ror	r11
    1d26:	a7 94       	ror	r10
    1d28:	22 0f       	add	r18, r18
    1d2a:	33 1f       	adc	r19, r19
    1d2c:	44 1f       	adc	r20, r20
    1d2e:	55 1f       	adc	r21, r21
    1d30:	61 50       	subi	r22, 0x01	; 1
    1d32:	70 40       	sbci	r23, 0x00	; 0
    1d34:	41 f7       	brne	.-48     	; 0x1d06 <__divsf3+0xd0>
    1d36:	6f e7       	ldi	r22, 0x7F	; 127
    1d38:	e6 2e       	mov	r14, r22
    1d3a:	f1 2c       	mov	r15, r1
    1d3c:	01 2d       	mov	r16, r1
    1d3e:	11 2d       	mov	r17, r1
    1d40:	e8 22       	and	r14, r24
    1d42:	f9 22       	and	r15, r25
    1d44:	0a 23       	and	r16, r26
    1d46:	1b 23       	and	r17, r27
    1d48:	60 e4       	ldi	r22, 0x40	; 64
    1d4a:	e6 16       	cp	r14, r22
    1d4c:	f1 04       	cpc	r15, r1
    1d4e:	01 05       	cpc	r16, r1
    1d50:	11 05       	cpc	r17, r1
    1d52:	61 f4       	brne	.+24     	; 0x1d6c <__divsf3+0x136>
    1d54:	87 fd       	sbrc	r24, 7
    1d56:	0a c0       	rjmp	.+20     	; 0x1d6c <__divsf3+0x136>
    1d58:	21 15       	cp	r18, r1
    1d5a:	31 05       	cpc	r19, r1
    1d5c:	41 05       	cpc	r20, r1
    1d5e:	51 05       	cpc	r21, r1
    1d60:	29 f0       	breq	.+10     	; 0x1d6c <__divsf3+0x136>
    1d62:	80 5c       	subi	r24, 0xC0	; 192
    1d64:	9f 4f       	sbci	r25, 0xFF	; 255
    1d66:	af 4f       	sbci	r26, 0xFF	; 255
    1d68:	bf 4f       	sbci	r27, 0xFF	; 255
    1d6a:	80 78       	andi	r24, 0x80	; 128
    1d6c:	8d 87       	std	Y+13, r24	; 0x0d
    1d6e:	9e 87       	std	Y+14, r25	; 0x0e
    1d70:	af 87       	std	Y+15, r26	; 0x0f
    1d72:	b8 8b       	std	Y+16, r27	; 0x10
    1d74:	8e 01       	movw	r16, r28
    1d76:	07 5f       	subi	r16, 0xF7	; 247
    1d78:	1f 4f       	sbci	r17, 0xFF	; 255
    1d7a:	04 c0       	rjmp	.+8      	; 0x1d84 <__divsf3+0x14e>
    1d7c:	87 01       	movw	r16, r14
    1d7e:	02 c0       	rjmp	.+4      	; 0x1d84 <__divsf3+0x14e>
    1d80:	06 e3       	ldi	r16, 0x36	; 54
    1d82:	11 e0       	ldi	r17, 0x01	; 1
    1d84:	c8 01       	movw	r24, r16
    1d86:	0e 94 7d 10 	call	0x20fa	; 0x20fa <__pack_f>
    1d8a:	68 96       	adiw	r28, 0x18	; 24
    1d8c:	ea e0       	ldi	r30, 0x0A	; 10
    1d8e:	0c 94 45 12 	jmp	0x248a	; 0x248a <__epilogue_restores__+0x10>

00001d92 <__gesf2>:
    1d92:	a8 e1       	ldi	r26, 0x18	; 24
    1d94:	b0 e0       	ldi	r27, 0x00	; 0
    1d96:	ef ec       	ldi	r30, 0xCF	; 207
    1d98:	fe e0       	ldi	r31, 0x0E	; 14
    1d9a:	0c 94 2d 12 	jmp	0x245a	; 0x245a <__prologue_saves__+0x18>
    1d9e:	69 83       	std	Y+1, r22	; 0x01
    1da0:	7a 83       	std	Y+2, r23	; 0x02
    1da2:	8b 83       	std	Y+3, r24	; 0x03
    1da4:	9c 83       	std	Y+4, r25	; 0x04
    1da6:	2d 83       	std	Y+5, r18	; 0x05
    1da8:	3e 83       	std	Y+6, r19	; 0x06
    1daa:	4f 83       	std	Y+7, r20	; 0x07
    1dac:	58 87       	std	Y+8, r21	; 0x08
    1dae:	8e 01       	movw	r16, r28
    1db0:	07 5f       	subi	r16, 0xF7	; 247
    1db2:	1f 4f       	sbci	r17, 0xFF	; 255
    1db4:	ce 01       	movw	r24, r28
    1db6:	01 96       	adiw	r24, 0x01	; 1
    1db8:	b8 01       	movw	r22, r16
    1dba:	0e 94 4b 11 	call	0x2296	; 0x2296 <__unpack_f>
    1dbe:	81 e1       	ldi	r24, 0x11	; 17
    1dc0:	e8 2e       	mov	r14, r24
    1dc2:	f1 2c       	mov	r15, r1
    1dc4:	ec 0e       	add	r14, r28
    1dc6:	fd 1e       	adc	r15, r29
    1dc8:	ce 01       	movw	r24, r28
    1dca:	05 96       	adiw	r24, 0x05	; 5
    1dcc:	b7 01       	movw	r22, r14
    1dce:	0e 94 4b 11 	call	0x2296	; 0x2296 <__unpack_f>
    1dd2:	89 85       	ldd	r24, Y+9	; 0x09
    1dd4:	82 30       	cpi	r24, 0x02	; 2
    1dd6:	40 f0       	brcs	.+16     	; 0x1de8 <__gesf2+0x56>
    1dd8:	89 89       	ldd	r24, Y+17	; 0x11
    1dda:	82 30       	cpi	r24, 0x02	; 2
    1ddc:	28 f0       	brcs	.+10     	; 0x1de8 <__gesf2+0x56>
    1dde:	c8 01       	movw	r24, r16
    1de0:	b7 01       	movw	r22, r14
    1de2:	0e 94 b4 11 	call	0x2368	; 0x2368 <__fpcmp_parts_f>
    1de6:	01 c0       	rjmp	.+2      	; 0x1dea <__gesf2+0x58>
    1de8:	8f ef       	ldi	r24, 0xFF	; 255
    1dea:	68 96       	adiw	r28, 0x18	; 24
    1dec:	e6 e0       	ldi	r30, 0x06	; 6
    1dee:	0c 94 49 12 	jmp	0x2492	; 0x2492 <__epilogue_restores__+0x18>

00001df2 <__floatsisf>:
    1df2:	a8 e0       	ldi	r26, 0x08	; 8
    1df4:	b0 e0       	ldi	r27, 0x00	; 0
    1df6:	ef ef       	ldi	r30, 0xFF	; 255
    1df8:	fe e0       	ldi	r31, 0x0E	; 14
    1dfa:	0c 94 2d 12 	jmp	0x245a	; 0x245a <__prologue_saves__+0x18>
    1dfe:	7b 01       	movw	r14, r22
    1e00:	8c 01       	movw	r16, r24
    1e02:	83 e0       	ldi	r24, 0x03	; 3
    1e04:	89 83       	std	Y+1, r24	; 0x01
    1e06:	d8 01       	movw	r26, r16
    1e08:	c7 01       	movw	r24, r14
    1e0a:	88 27       	eor	r24, r24
    1e0c:	b7 fd       	sbrc	r27, 7
    1e0e:	83 95       	inc	r24
    1e10:	99 27       	eor	r25, r25
    1e12:	aa 27       	eor	r26, r26
    1e14:	bb 27       	eor	r27, r27
    1e16:	28 2f       	mov	r18, r24
    1e18:	8a 83       	std	Y+2, r24	; 0x02
    1e1a:	e1 14       	cp	r14, r1
    1e1c:	f1 04       	cpc	r15, r1
    1e1e:	01 05       	cpc	r16, r1
    1e20:	11 05       	cpc	r17, r1
    1e22:	19 f4       	brne	.+6      	; 0x1e2a <__floatsisf+0x38>
    1e24:	82 e0       	ldi	r24, 0x02	; 2
    1e26:	89 83       	std	Y+1, r24	; 0x01
    1e28:	37 c0       	rjmp	.+110    	; 0x1e98 <__floatsisf+0xa6>
    1e2a:	8e e1       	ldi	r24, 0x1E	; 30
    1e2c:	90 e0       	ldi	r25, 0x00	; 0
    1e2e:	9c 83       	std	Y+4, r25	; 0x04
    1e30:	8b 83       	std	Y+3, r24	; 0x03
    1e32:	22 23       	and	r18, r18
    1e34:	89 f0       	breq	.+34     	; 0x1e58 <__floatsisf+0x66>
    1e36:	80 e0       	ldi	r24, 0x00	; 0
    1e38:	e8 16       	cp	r14, r24
    1e3a:	80 e0       	ldi	r24, 0x00	; 0
    1e3c:	f8 06       	cpc	r15, r24
    1e3e:	80 e0       	ldi	r24, 0x00	; 0
    1e40:	08 07       	cpc	r16, r24
    1e42:	80 e8       	ldi	r24, 0x80	; 128
    1e44:	18 07       	cpc	r17, r24
    1e46:	69 f1       	breq	.+90     	; 0x1ea2 <__floatsisf+0xb0>
    1e48:	10 95       	com	r17
    1e4a:	00 95       	com	r16
    1e4c:	f0 94       	com	r15
    1e4e:	e0 94       	com	r14
    1e50:	e1 1c       	adc	r14, r1
    1e52:	f1 1c       	adc	r15, r1
    1e54:	01 1d       	adc	r16, r1
    1e56:	11 1d       	adc	r17, r1
    1e58:	ed 82       	std	Y+5, r14	; 0x05
    1e5a:	fe 82       	std	Y+6, r15	; 0x06
    1e5c:	0f 83       	std	Y+7, r16	; 0x07
    1e5e:	18 87       	std	Y+8, r17	; 0x08
    1e60:	c8 01       	movw	r24, r16
    1e62:	b7 01       	movw	r22, r14
    1e64:	0e 94 23 10 	call	0x2046	; 0x2046 <__clzsi2>
    1e68:	9c 01       	movw	r18, r24
    1e6a:	21 50       	subi	r18, 0x01	; 1
    1e6c:	30 40       	sbci	r19, 0x00	; 0
    1e6e:	12 16       	cp	r1, r18
    1e70:	13 06       	cpc	r1, r19
    1e72:	94 f4       	brge	.+36     	; 0x1e98 <__floatsisf+0xa6>
    1e74:	02 2e       	mov	r0, r18
    1e76:	04 c0       	rjmp	.+8      	; 0x1e80 <__floatsisf+0x8e>
    1e78:	ee 0c       	add	r14, r14
    1e7a:	ff 1c       	adc	r15, r15
    1e7c:	00 1f       	adc	r16, r16
    1e7e:	11 1f       	adc	r17, r17
    1e80:	0a 94       	dec	r0
    1e82:	d2 f7       	brpl	.-12     	; 0x1e78 <__floatsisf+0x86>
    1e84:	ed 82       	std	Y+5, r14	; 0x05
    1e86:	fe 82       	std	Y+6, r15	; 0x06
    1e88:	0f 83       	std	Y+7, r16	; 0x07
    1e8a:	18 87       	std	Y+8, r17	; 0x08
    1e8c:	8e e1       	ldi	r24, 0x1E	; 30
    1e8e:	90 e0       	ldi	r25, 0x00	; 0
    1e90:	82 1b       	sub	r24, r18
    1e92:	93 0b       	sbc	r25, r19
    1e94:	9c 83       	std	Y+4, r25	; 0x04
    1e96:	8b 83       	std	Y+3, r24	; 0x03
    1e98:	ce 01       	movw	r24, r28
    1e9a:	01 96       	adiw	r24, 0x01	; 1
    1e9c:	0e 94 7d 10 	call	0x20fa	; 0x20fa <__pack_f>
    1ea0:	04 c0       	rjmp	.+8      	; 0x1eaa <__floatsisf+0xb8>
    1ea2:	60 e0       	ldi	r22, 0x00	; 0
    1ea4:	70 e0       	ldi	r23, 0x00	; 0
    1ea6:	80 e0       	ldi	r24, 0x00	; 0
    1ea8:	9f ec       	ldi	r25, 0xCF	; 207
    1eaa:	28 96       	adiw	r28, 0x08	; 8
    1eac:	e6 e0       	ldi	r30, 0x06	; 6
    1eae:	0c 94 49 12 	jmp	0x2492	; 0x2492 <__epilogue_restores__+0x18>

00001eb2 <__fixsfsi>:
    1eb2:	ac e0       	ldi	r26, 0x0C	; 12
    1eb4:	b0 e0       	ldi	r27, 0x00	; 0
    1eb6:	ef e5       	ldi	r30, 0x5F	; 95
    1eb8:	ff e0       	ldi	r31, 0x0F	; 15
    1eba:	0c 94 31 12 	jmp	0x2462	; 0x2462 <__prologue_saves__+0x20>
    1ebe:	69 83       	std	Y+1, r22	; 0x01
    1ec0:	7a 83       	std	Y+2, r23	; 0x02
    1ec2:	8b 83       	std	Y+3, r24	; 0x03
    1ec4:	9c 83       	std	Y+4, r25	; 0x04
    1ec6:	ce 01       	movw	r24, r28
    1ec8:	01 96       	adiw	r24, 0x01	; 1
    1eca:	be 01       	movw	r22, r28
    1ecc:	6b 5f       	subi	r22, 0xFB	; 251
    1ece:	7f 4f       	sbci	r23, 0xFF	; 255
    1ed0:	0e 94 4b 11 	call	0x2296	; 0x2296 <__unpack_f>
    1ed4:	8d 81       	ldd	r24, Y+5	; 0x05
    1ed6:	82 30       	cpi	r24, 0x02	; 2
    1ed8:	81 f1       	breq	.+96     	; 0x1f3a <__fixsfsi+0x88>
    1eda:	82 30       	cpi	r24, 0x02	; 2
    1edc:	70 f1       	brcs	.+92     	; 0x1f3a <__fixsfsi+0x88>
    1ede:	84 30       	cpi	r24, 0x04	; 4
    1ee0:	21 f4       	brne	.+8      	; 0x1eea <__fixsfsi+0x38>
    1ee2:	8e 81       	ldd	r24, Y+6	; 0x06
    1ee4:	88 23       	and	r24, r24
    1ee6:	69 f1       	breq	.+90     	; 0x1f42 <__fixsfsi+0x90>
    1ee8:	0a c0       	rjmp	.+20     	; 0x1efe <__fixsfsi+0x4c>
    1eea:	2f 81       	ldd	r18, Y+7	; 0x07
    1eec:	38 85       	ldd	r19, Y+8	; 0x08
    1eee:	37 fd       	sbrc	r19, 7
    1ef0:	24 c0       	rjmp	.+72     	; 0x1f3a <__fixsfsi+0x88>
    1ef2:	6e 81       	ldd	r22, Y+6	; 0x06
    1ef4:	2f 31       	cpi	r18, 0x1F	; 31
    1ef6:	31 05       	cpc	r19, r1
    1ef8:	3c f0       	brlt	.+14     	; 0x1f08 <__fixsfsi+0x56>
    1efa:	66 23       	and	r22, r22
    1efc:	11 f1       	breq	.+68     	; 0x1f42 <__fixsfsi+0x90>
    1efe:	20 e0       	ldi	r18, 0x00	; 0
    1f00:	30 e0       	ldi	r19, 0x00	; 0
    1f02:	40 e0       	ldi	r20, 0x00	; 0
    1f04:	50 e8       	ldi	r21, 0x80	; 128
    1f06:	21 c0       	rjmp	.+66     	; 0x1f4a <__fixsfsi+0x98>
    1f08:	8e e1       	ldi	r24, 0x1E	; 30
    1f0a:	90 e0       	ldi	r25, 0x00	; 0
    1f0c:	82 1b       	sub	r24, r18
    1f0e:	93 0b       	sbc	r25, r19
    1f10:	29 85       	ldd	r18, Y+9	; 0x09
    1f12:	3a 85       	ldd	r19, Y+10	; 0x0a
    1f14:	4b 85       	ldd	r20, Y+11	; 0x0b
    1f16:	5c 85       	ldd	r21, Y+12	; 0x0c
    1f18:	04 c0       	rjmp	.+8      	; 0x1f22 <__fixsfsi+0x70>
    1f1a:	56 95       	lsr	r21
    1f1c:	47 95       	ror	r20
    1f1e:	37 95       	ror	r19
    1f20:	27 95       	ror	r18
    1f22:	8a 95       	dec	r24
    1f24:	d2 f7       	brpl	.-12     	; 0x1f1a <__fixsfsi+0x68>
    1f26:	66 23       	and	r22, r22
    1f28:	81 f0       	breq	.+32     	; 0x1f4a <__fixsfsi+0x98>
    1f2a:	50 95       	com	r21
    1f2c:	40 95       	com	r20
    1f2e:	30 95       	com	r19
    1f30:	21 95       	neg	r18
    1f32:	3f 4f       	sbci	r19, 0xFF	; 255
    1f34:	4f 4f       	sbci	r20, 0xFF	; 255
    1f36:	5f 4f       	sbci	r21, 0xFF	; 255
    1f38:	08 c0       	rjmp	.+16     	; 0x1f4a <__fixsfsi+0x98>
    1f3a:	20 e0       	ldi	r18, 0x00	; 0
    1f3c:	30 e0       	ldi	r19, 0x00	; 0
    1f3e:	a9 01       	movw	r20, r18
    1f40:	04 c0       	rjmp	.+8      	; 0x1f4a <__fixsfsi+0x98>
    1f42:	2f ef       	ldi	r18, 0xFF	; 255
    1f44:	3f ef       	ldi	r19, 0xFF	; 255
    1f46:	4f ef       	ldi	r20, 0xFF	; 255
    1f48:	5f e7       	ldi	r21, 0x7F	; 127
    1f4a:	b9 01       	movw	r22, r18
    1f4c:	ca 01       	movw	r24, r20
    1f4e:	2c 96       	adiw	r28, 0x0c	; 12
    1f50:	e2 e0       	ldi	r30, 0x02	; 2
    1f52:	0c 94 4d 12 	jmp	0x249a	; 0x249a <__epilogue_restores__+0x20>

00001f56 <__floatunsisf>:
    1f56:	a8 e0       	ldi	r26, 0x08	; 8
    1f58:	b0 e0       	ldi	r27, 0x00	; 0
    1f5a:	e1 eb       	ldi	r30, 0xB1	; 177
    1f5c:	ff e0       	ldi	r31, 0x0F	; 15
    1f5e:	0c 94 2b 12 	jmp	0x2456	; 0x2456 <__prologue_saves__+0x14>
    1f62:	7b 01       	movw	r14, r22
    1f64:	8c 01       	movw	r16, r24
    1f66:	1a 82       	std	Y+2, r1	; 0x02
    1f68:	61 15       	cp	r22, r1
    1f6a:	71 05       	cpc	r23, r1
    1f6c:	81 05       	cpc	r24, r1
    1f6e:	91 05       	cpc	r25, r1
    1f70:	19 f4       	brne	.+6      	; 0x1f78 <__floatunsisf+0x22>
    1f72:	82 e0       	ldi	r24, 0x02	; 2
    1f74:	89 83       	std	Y+1, r24	; 0x01
    1f76:	5f c0       	rjmp	.+190    	; 0x2036 <__floatunsisf+0xe0>
    1f78:	83 e0       	ldi	r24, 0x03	; 3
    1f7a:	89 83       	std	Y+1, r24	; 0x01
    1f7c:	8e e1       	ldi	r24, 0x1E	; 30
    1f7e:	c8 2e       	mov	r12, r24
    1f80:	d1 2c       	mov	r13, r1
    1f82:	dc 82       	std	Y+4, r13	; 0x04
    1f84:	cb 82       	std	Y+3, r12	; 0x03
    1f86:	ed 82       	std	Y+5, r14	; 0x05
    1f88:	fe 82       	std	Y+6, r15	; 0x06
    1f8a:	0f 83       	std	Y+7, r16	; 0x07
    1f8c:	18 87       	std	Y+8, r17	; 0x08
    1f8e:	c8 01       	movw	r24, r16
    1f90:	b7 01       	movw	r22, r14
    1f92:	0e 94 23 10 	call	0x2046	; 0x2046 <__clzsi2>
    1f96:	fc 01       	movw	r30, r24
    1f98:	31 97       	sbiw	r30, 0x01	; 1
    1f9a:	f7 ff       	sbrs	r31, 7
    1f9c:	3a c0       	rjmp	.+116    	; 0x2012 <__floatunsisf+0xbc>
    1f9e:	aa 27       	eor	r26, r26
    1fa0:	bb 27       	eor	r27, r27
    1fa2:	ae 1b       	sub	r26, r30
    1fa4:	bf 0b       	sbc	r27, r31
    1fa6:	21 e0       	ldi	r18, 0x01	; 1
    1fa8:	30 e0       	ldi	r19, 0x00	; 0
    1faa:	40 e0       	ldi	r20, 0x00	; 0
    1fac:	50 e0       	ldi	r21, 0x00	; 0
    1fae:	0a 2e       	mov	r0, r26
    1fb0:	04 c0       	rjmp	.+8      	; 0x1fba <__floatunsisf+0x64>
    1fb2:	22 0f       	add	r18, r18
    1fb4:	33 1f       	adc	r19, r19
    1fb6:	44 1f       	adc	r20, r20
    1fb8:	55 1f       	adc	r21, r21
    1fba:	0a 94       	dec	r0
    1fbc:	d2 f7       	brpl	.-12     	; 0x1fb2 <__floatunsisf+0x5c>
    1fbe:	21 50       	subi	r18, 0x01	; 1
    1fc0:	30 40       	sbci	r19, 0x00	; 0
    1fc2:	40 40       	sbci	r20, 0x00	; 0
    1fc4:	50 40       	sbci	r21, 0x00	; 0
    1fc6:	2e 21       	and	r18, r14
    1fc8:	3f 21       	and	r19, r15
    1fca:	40 23       	and	r20, r16
    1fcc:	51 23       	and	r21, r17
    1fce:	61 e0       	ldi	r22, 0x01	; 1
    1fd0:	70 e0       	ldi	r23, 0x00	; 0
    1fd2:	80 e0       	ldi	r24, 0x00	; 0
    1fd4:	90 e0       	ldi	r25, 0x00	; 0
    1fd6:	21 15       	cp	r18, r1
    1fd8:	31 05       	cpc	r19, r1
    1fda:	41 05       	cpc	r20, r1
    1fdc:	51 05       	cpc	r21, r1
    1fde:	19 f4       	brne	.+6      	; 0x1fe6 <__floatunsisf+0x90>
    1fe0:	60 e0       	ldi	r22, 0x00	; 0
    1fe2:	70 e0       	ldi	r23, 0x00	; 0
    1fe4:	cb 01       	movw	r24, r22
    1fe6:	04 c0       	rjmp	.+8      	; 0x1ff0 <__floatunsisf+0x9a>
    1fe8:	16 95       	lsr	r17
    1fea:	07 95       	ror	r16
    1fec:	f7 94       	ror	r15
    1fee:	e7 94       	ror	r14
    1ff0:	aa 95       	dec	r26
    1ff2:	d2 f7       	brpl	.-12     	; 0x1fe8 <__floatunsisf+0x92>
    1ff4:	e6 2a       	or	r14, r22
    1ff6:	f7 2a       	or	r15, r23
    1ff8:	08 2b       	or	r16, r24
    1ffa:	19 2b       	or	r17, r25
    1ffc:	ed 82       	std	Y+5, r14	; 0x05
    1ffe:	fe 82       	std	Y+6, r15	; 0x06
    2000:	0f 83       	std	Y+7, r16	; 0x07
    2002:	18 87       	std	Y+8, r17	; 0x08
    2004:	8e e1       	ldi	r24, 0x1E	; 30
    2006:	90 e0       	ldi	r25, 0x00	; 0
    2008:	8e 1b       	sub	r24, r30
    200a:	9f 0b       	sbc	r25, r31
    200c:	9c 83       	std	Y+4, r25	; 0x04
    200e:	8b 83       	std	Y+3, r24	; 0x03
    2010:	12 c0       	rjmp	.+36     	; 0x2036 <__floatunsisf+0xe0>
    2012:	30 97       	sbiw	r30, 0x00	; 0
    2014:	81 f0       	breq	.+32     	; 0x2036 <__floatunsisf+0xe0>
    2016:	0e 2e       	mov	r0, r30
    2018:	04 c0       	rjmp	.+8      	; 0x2022 <__floatunsisf+0xcc>
    201a:	ee 0c       	add	r14, r14
    201c:	ff 1c       	adc	r15, r15
    201e:	00 1f       	adc	r16, r16
    2020:	11 1f       	adc	r17, r17
    2022:	0a 94       	dec	r0
    2024:	d2 f7       	brpl	.-12     	; 0x201a <__floatunsisf+0xc4>
    2026:	ed 82       	std	Y+5, r14	; 0x05
    2028:	fe 82       	std	Y+6, r15	; 0x06
    202a:	0f 83       	std	Y+7, r16	; 0x07
    202c:	18 87       	std	Y+8, r17	; 0x08
    202e:	ce 1a       	sub	r12, r30
    2030:	df 0a       	sbc	r13, r31
    2032:	dc 82       	std	Y+4, r13	; 0x04
    2034:	cb 82       	std	Y+3, r12	; 0x03
    2036:	ce 01       	movw	r24, r28
    2038:	01 96       	adiw	r24, 0x01	; 1
    203a:	0e 94 7d 10 	call	0x20fa	; 0x20fa <__pack_f>
    203e:	28 96       	adiw	r28, 0x08	; 8
    2040:	e8 e0       	ldi	r30, 0x08	; 8
    2042:	0c 94 47 12 	jmp	0x248e	; 0x248e <__epilogue_restores__+0x14>

00002046 <__clzsi2>:
    2046:	af 92       	push	r10
    2048:	bf 92       	push	r11
    204a:	cf 92       	push	r12
    204c:	df 92       	push	r13
    204e:	ef 92       	push	r14
    2050:	ff 92       	push	r15
    2052:	0f 93       	push	r16
    2054:	1f 93       	push	r17
    2056:	7b 01       	movw	r14, r22
    2058:	8c 01       	movw	r16, r24
    205a:	80 e0       	ldi	r24, 0x00	; 0
    205c:	e8 16       	cp	r14, r24
    205e:	80 e0       	ldi	r24, 0x00	; 0
    2060:	f8 06       	cpc	r15, r24
    2062:	81 e0       	ldi	r24, 0x01	; 1
    2064:	08 07       	cpc	r16, r24
    2066:	80 e0       	ldi	r24, 0x00	; 0
    2068:	18 07       	cpc	r17, r24
    206a:	58 f4       	brcc	.+22     	; 0x2082 <__clzsi2+0x3c>
    206c:	ef ef       	ldi	r30, 0xFF	; 255
    206e:	ee 16       	cp	r14, r30
    2070:	f1 04       	cpc	r15, r1
    2072:	01 05       	cpc	r16, r1
    2074:	11 05       	cpc	r17, r1
    2076:	09 f0       	breq	.+2      	; 0x207a <__clzsi2+0x34>
    2078:	90 f4       	brcc	.+36     	; 0x209e <__clzsi2+0x58>
    207a:	80 e0       	ldi	r24, 0x00	; 0
    207c:	90 e0       	ldi	r25, 0x00	; 0
    207e:	dc 01       	movw	r26, r24
    2080:	17 c0       	rjmp	.+46     	; 0x20b0 <__clzsi2+0x6a>
    2082:	f0 e0       	ldi	r31, 0x00	; 0
    2084:	ef 16       	cp	r14, r31
    2086:	f0 e0       	ldi	r31, 0x00	; 0
    2088:	ff 06       	cpc	r15, r31
    208a:	f0 e0       	ldi	r31, 0x00	; 0
    208c:	0f 07       	cpc	r16, r31
    208e:	f1 e0       	ldi	r31, 0x01	; 1
    2090:	1f 07       	cpc	r17, r31
    2092:	50 f4       	brcc	.+20     	; 0x20a8 <__clzsi2+0x62>
    2094:	80 e1       	ldi	r24, 0x10	; 16
    2096:	90 e0       	ldi	r25, 0x00	; 0
    2098:	a0 e0       	ldi	r26, 0x00	; 0
    209a:	b0 e0       	ldi	r27, 0x00	; 0
    209c:	09 c0       	rjmp	.+18     	; 0x20b0 <__clzsi2+0x6a>
    209e:	88 e0       	ldi	r24, 0x08	; 8
    20a0:	90 e0       	ldi	r25, 0x00	; 0
    20a2:	a0 e0       	ldi	r26, 0x00	; 0
    20a4:	b0 e0       	ldi	r27, 0x00	; 0
    20a6:	04 c0       	rjmp	.+8      	; 0x20b0 <__clzsi2+0x6a>
    20a8:	88 e1       	ldi	r24, 0x18	; 24
    20aa:	90 e0       	ldi	r25, 0x00	; 0
    20ac:	a0 e0       	ldi	r26, 0x00	; 0
    20ae:	b0 e0       	ldi	r27, 0x00	; 0
    20b0:	20 e2       	ldi	r18, 0x20	; 32
    20b2:	30 e0       	ldi	r19, 0x00	; 0
    20b4:	40 e0       	ldi	r20, 0x00	; 0
    20b6:	50 e0       	ldi	r21, 0x00	; 0
    20b8:	28 1b       	sub	r18, r24
    20ba:	39 0b       	sbc	r19, r25
    20bc:	4a 0b       	sbc	r20, r26
    20be:	5b 0b       	sbc	r21, r27
    20c0:	57 01       	movw	r10, r14
    20c2:	68 01       	movw	r12, r16
    20c4:	04 c0       	rjmp	.+8      	; 0x20ce <__clzsi2+0x88>
    20c6:	d6 94       	lsr	r13
    20c8:	c7 94       	ror	r12
    20ca:	b7 94       	ror	r11
    20cc:	a7 94       	ror	r10
    20ce:	8a 95       	dec	r24
    20d0:	d2 f7       	brpl	.-12     	; 0x20c6 <__clzsi2+0x80>
    20d2:	d6 01       	movw	r26, r12
    20d4:	c5 01       	movw	r24, r10
    20d6:	82 5c       	subi	r24, 0xC2	; 194
    20d8:	9e 4f       	sbci	r25, 0xFE	; 254
    20da:	fc 01       	movw	r30, r24
    20dc:	80 81       	ld	r24, Z
    20de:	28 1b       	sub	r18, r24
    20e0:	31 09       	sbc	r19, r1
    20e2:	41 09       	sbc	r20, r1
    20e4:	51 09       	sbc	r21, r1
    20e6:	c9 01       	movw	r24, r18
    20e8:	1f 91       	pop	r17
    20ea:	0f 91       	pop	r16
    20ec:	ff 90       	pop	r15
    20ee:	ef 90       	pop	r14
    20f0:	df 90       	pop	r13
    20f2:	cf 90       	pop	r12
    20f4:	bf 90       	pop	r11
    20f6:	af 90       	pop	r10
    20f8:	08 95       	ret

000020fa <__pack_f>:
    20fa:	ef 92       	push	r14
    20fc:	ff 92       	push	r15
    20fe:	0f 93       	push	r16
    2100:	1f 93       	push	r17
    2102:	cf 93       	push	r28
    2104:	df 93       	push	r29
    2106:	fc 01       	movw	r30, r24
    2108:	24 81       	ldd	r18, Z+4	; 0x04
    210a:	35 81       	ldd	r19, Z+5	; 0x05
    210c:	46 81       	ldd	r20, Z+6	; 0x06
    210e:	57 81       	ldd	r21, Z+7	; 0x07
    2110:	61 81       	ldd	r22, Z+1	; 0x01
    2112:	80 81       	ld	r24, Z
    2114:	82 30       	cpi	r24, 0x02	; 2
    2116:	20 f4       	brcc	.+8      	; 0x2120 <__pack_f+0x26>
    2118:	40 61       	ori	r20, 0x10	; 16
    211a:	ef ef       	ldi	r30, 0xFF	; 255
    211c:	f0 e0       	ldi	r31, 0x00	; 0
    211e:	a3 c0       	rjmp	.+326    	; 0x2266 <__pack_f+0x16c>
    2120:	84 30       	cpi	r24, 0x04	; 4
    2122:	09 f4       	brne	.+2      	; 0x2126 <__pack_f+0x2c>
    2124:	9b c0       	rjmp	.+310    	; 0x225c <__pack_f+0x162>
    2126:	82 30       	cpi	r24, 0x02	; 2
    2128:	09 f4       	brne	.+2      	; 0x212c <__pack_f+0x32>
    212a:	92 c0       	rjmp	.+292    	; 0x2250 <__pack_f+0x156>
    212c:	21 15       	cp	r18, r1
    212e:	31 05       	cpc	r19, r1
    2130:	41 05       	cpc	r20, r1
    2132:	51 05       	cpc	r21, r1
    2134:	09 f4       	brne	.+2      	; 0x2138 <__pack_f+0x3e>
    2136:	8f c0       	rjmp	.+286    	; 0x2256 <__pack_f+0x15c>
    2138:	02 80       	ldd	r0, Z+2	; 0x02
    213a:	f3 81       	ldd	r31, Z+3	; 0x03
    213c:	e0 2d       	mov	r30, r0
    213e:	8f ef       	ldi	r24, 0xFF	; 255
    2140:	e2 38       	cpi	r30, 0x82	; 130
    2142:	f8 07       	cpc	r31, r24
    2144:	0c f0       	brlt	.+2      	; 0x2148 <__pack_f+0x4e>
    2146:	5a c0       	rjmp	.+180    	; 0x21fc <__pack_f+0x102>
    2148:	c2 e8       	ldi	r28, 0x82	; 130
    214a:	df ef       	ldi	r29, 0xFF	; 255
    214c:	ce 1b       	sub	r28, r30
    214e:	df 0b       	sbc	r29, r31
    2150:	ca 31       	cpi	r28, 0x1A	; 26
    2152:	d1 05       	cpc	r29, r1
    2154:	6c f5       	brge	.+90     	; 0x21b0 <__pack_f+0xb6>
    2156:	79 01       	movw	r14, r18
    2158:	8a 01       	movw	r16, r20
    215a:	0c 2e       	mov	r0, r28
    215c:	04 c0       	rjmp	.+8      	; 0x2166 <__pack_f+0x6c>
    215e:	16 95       	lsr	r17
    2160:	07 95       	ror	r16
    2162:	f7 94       	ror	r15
    2164:	e7 94       	ror	r14
    2166:	0a 94       	dec	r0
    2168:	d2 f7       	brpl	.-12     	; 0x215e <__pack_f+0x64>
    216a:	81 e0       	ldi	r24, 0x01	; 1
    216c:	90 e0       	ldi	r25, 0x00	; 0
    216e:	a0 e0       	ldi	r26, 0x00	; 0
    2170:	b0 e0       	ldi	r27, 0x00	; 0
    2172:	0c 2e       	mov	r0, r28
    2174:	04 c0       	rjmp	.+8      	; 0x217e <__pack_f+0x84>
    2176:	88 0f       	add	r24, r24
    2178:	99 1f       	adc	r25, r25
    217a:	aa 1f       	adc	r26, r26
    217c:	bb 1f       	adc	r27, r27
    217e:	0a 94       	dec	r0
    2180:	d2 f7       	brpl	.-12     	; 0x2176 <__pack_f+0x7c>
    2182:	01 97       	sbiw	r24, 0x01	; 1
    2184:	a1 09       	sbc	r26, r1
    2186:	b1 09       	sbc	r27, r1
    2188:	82 23       	and	r24, r18
    218a:	93 23       	and	r25, r19
    218c:	a4 23       	and	r26, r20
    218e:	b5 23       	and	r27, r21
    2190:	21 e0       	ldi	r18, 0x01	; 1
    2192:	30 e0       	ldi	r19, 0x00	; 0
    2194:	40 e0       	ldi	r20, 0x00	; 0
    2196:	50 e0       	ldi	r21, 0x00	; 0
    2198:	00 97       	sbiw	r24, 0x00	; 0
    219a:	a1 05       	cpc	r26, r1
    219c:	b1 05       	cpc	r27, r1
    219e:	19 f4       	brne	.+6      	; 0x21a6 <__pack_f+0xac>
    21a0:	20 e0       	ldi	r18, 0x00	; 0
    21a2:	30 e0       	ldi	r19, 0x00	; 0
    21a4:	a9 01       	movw	r20, r18
    21a6:	2e 29       	or	r18, r14
    21a8:	3f 29       	or	r19, r15
    21aa:	40 2b       	or	r20, r16
    21ac:	51 2b       	or	r21, r17
    21ae:	03 c0       	rjmp	.+6      	; 0x21b6 <__pack_f+0xbc>
    21b0:	20 e0       	ldi	r18, 0x00	; 0
    21b2:	30 e0       	ldi	r19, 0x00	; 0
    21b4:	a9 01       	movw	r20, r18
    21b6:	da 01       	movw	r26, r20
    21b8:	c9 01       	movw	r24, r18
    21ba:	8f 77       	andi	r24, 0x7F	; 127
    21bc:	90 70       	andi	r25, 0x00	; 0
    21be:	a0 70       	andi	r26, 0x00	; 0
    21c0:	b0 70       	andi	r27, 0x00	; 0
    21c2:	80 34       	cpi	r24, 0x40	; 64
    21c4:	91 05       	cpc	r25, r1
    21c6:	a1 05       	cpc	r26, r1
    21c8:	b1 05       	cpc	r27, r1
    21ca:	39 f4       	brne	.+14     	; 0x21da <__pack_f+0xe0>
    21cc:	27 ff       	sbrs	r18, 7
    21ce:	09 c0       	rjmp	.+18     	; 0x21e2 <__pack_f+0xe8>
    21d0:	20 5c       	subi	r18, 0xC0	; 192
    21d2:	3f 4f       	sbci	r19, 0xFF	; 255
    21d4:	4f 4f       	sbci	r20, 0xFF	; 255
    21d6:	5f 4f       	sbci	r21, 0xFF	; 255
    21d8:	04 c0       	rjmp	.+8      	; 0x21e2 <__pack_f+0xe8>
    21da:	21 5c       	subi	r18, 0xC1	; 193
    21dc:	3f 4f       	sbci	r19, 0xFF	; 255
    21de:	4f 4f       	sbci	r20, 0xFF	; 255
    21e0:	5f 4f       	sbci	r21, 0xFF	; 255
    21e2:	e1 e0       	ldi	r30, 0x01	; 1
    21e4:	f0 e0       	ldi	r31, 0x00	; 0
    21e6:	20 30       	cpi	r18, 0x00	; 0
    21e8:	80 e0       	ldi	r24, 0x00	; 0
    21ea:	38 07       	cpc	r19, r24
    21ec:	80 e0       	ldi	r24, 0x00	; 0
    21ee:	48 07       	cpc	r20, r24
    21f0:	80 e4       	ldi	r24, 0x40	; 64
    21f2:	58 07       	cpc	r21, r24
    21f4:	28 f5       	brcc	.+74     	; 0x2240 <__pack_f+0x146>
    21f6:	e0 e0       	ldi	r30, 0x00	; 0
    21f8:	f0 e0       	ldi	r31, 0x00	; 0
    21fa:	22 c0       	rjmp	.+68     	; 0x2240 <__pack_f+0x146>
    21fc:	e0 38       	cpi	r30, 0x80	; 128
    21fe:	f1 05       	cpc	r31, r1
    2200:	6c f5       	brge	.+90     	; 0x225c <__pack_f+0x162>
    2202:	e1 58       	subi	r30, 0x81	; 129
    2204:	ff 4f       	sbci	r31, 0xFF	; 255
    2206:	da 01       	movw	r26, r20
    2208:	c9 01       	movw	r24, r18
    220a:	8f 77       	andi	r24, 0x7F	; 127
    220c:	90 70       	andi	r25, 0x00	; 0
    220e:	a0 70       	andi	r26, 0x00	; 0
    2210:	b0 70       	andi	r27, 0x00	; 0
    2212:	80 34       	cpi	r24, 0x40	; 64
    2214:	91 05       	cpc	r25, r1
    2216:	a1 05       	cpc	r26, r1
    2218:	b1 05       	cpc	r27, r1
    221a:	39 f4       	brne	.+14     	; 0x222a <__pack_f+0x130>
    221c:	27 ff       	sbrs	r18, 7
    221e:	09 c0       	rjmp	.+18     	; 0x2232 <__pack_f+0x138>
    2220:	20 5c       	subi	r18, 0xC0	; 192
    2222:	3f 4f       	sbci	r19, 0xFF	; 255
    2224:	4f 4f       	sbci	r20, 0xFF	; 255
    2226:	5f 4f       	sbci	r21, 0xFF	; 255
    2228:	04 c0       	rjmp	.+8      	; 0x2232 <__pack_f+0x138>
    222a:	21 5c       	subi	r18, 0xC1	; 193
    222c:	3f 4f       	sbci	r19, 0xFF	; 255
    222e:	4f 4f       	sbci	r20, 0xFF	; 255
    2230:	5f 4f       	sbci	r21, 0xFF	; 255
    2232:	57 ff       	sbrs	r21, 7
    2234:	05 c0       	rjmp	.+10     	; 0x2240 <__pack_f+0x146>
    2236:	56 95       	lsr	r21
    2238:	47 95       	ror	r20
    223a:	37 95       	ror	r19
    223c:	27 95       	ror	r18
    223e:	31 96       	adiw	r30, 0x01	; 1
    2240:	87 e0       	ldi	r24, 0x07	; 7
    2242:	56 95       	lsr	r21
    2244:	47 95       	ror	r20
    2246:	37 95       	ror	r19
    2248:	27 95       	ror	r18
    224a:	8a 95       	dec	r24
    224c:	d1 f7       	brne	.-12     	; 0x2242 <__pack_f+0x148>
    224e:	0b c0       	rjmp	.+22     	; 0x2266 <__pack_f+0x16c>
    2250:	e0 e0       	ldi	r30, 0x00	; 0
    2252:	f0 e0       	ldi	r31, 0x00	; 0
    2254:	05 c0       	rjmp	.+10     	; 0x2260 <__pack_f+0x166>
    2256:	e0 e0       	ldi	r30, 0x00	; 0
    2258:	f0 e0       	ldi	r31, 0x00	; 0
    225a:	05 c0       	rjmp	.+10     	; 0x2266 <__pack_f+0x16c>
    225c:	ef ef       	ldi	r30, 0xFF	; 255
    225e:	f0 e0       	ldi	r31, 0x00	; 0
    2260:	20 e0       	ldi	r18, 0x00	; 0
    2262:	30 e0       	ldi	r19, 0x00	; 0
    2264:	a9 01       	movw	r20, r18
    2266:	8e 2f       	mov	r24, r30
    2268:	87 95       	ror	r24
    226a:	88 27       	eor	r24, r24
    226c:	87 95       	ror	r24
    226e:	94 2f       	mov	r25, r20
    2270:	9f 77       	andi	r25, 0x7F	; 127
    2272:	67 95       	ror	r22
    2274:	66 27       	eor	r22, r22
    2276:	67 95       	ror	r22
    2278:	e6 95       	lsr	r30
    227a:	e2 2e       	mov	r14, r18
    227c:	a9 2f       	mov	r26, r25
    227e:	a8 2b       	or	r26, r24
    2280:	fe 2f       	mov	r31, r30
    2282:	f6 2b       	or	r31, r22
    2284:	62 2f       	mov	r22, r18
    2286:	73 2f       	mov	r23, r19
    2288:	8a 2f       	mov	r24, r26
    228a:	9f 2f       	mov	r25, r31
    228c:	cd b7       	in	r28, 0x3d	; 61
    228e:	de b7       	in	r29, 0x3e	; 62
    2290:	e6 e0       	ldi	r30, 0x06	; 6
    2292:	0c 94 49 12 	jmp	0x2492	; 0x2492 <__epilogue_restores__+0x18>

00002296 <__unpack_f>:
    2296:	dc 01       	movw	r26, r24
    2298:	fb 01       	movw	r30, r22
    229a:	2c 91       	ld	r18, X
    229c:	11 96       	adiw	r26, 0x01	; 1
    229e:	3c 91       	ld	r19, X
    22a0:	11 97       	sbiw	r26, 0x01	; 1
    22a2:	12 96       	adiw	r26, 0x02	; 2
    22a4:	8c 91       	ld	r24, X
    22a6:	12 97       	sbiw	r26, 0x02	; 2
    22a8:	48 2f       	mov	r20, r24
    22aa:	4f 77       	andi	r20, 0x7F	; 127
    22ac:	50 e0       	ldi	r21, 0x00	; 0
    22ae:	98 2f       	mov	r25, r24
    22b0:	99 1f       	adc	r25, r25
    22b2:	99 27       	eor	r25, r25
    22b4:	99 1f       	adc	r25, r25
    22b6:	13 96       	adiw	r26, 0x03	; 3
    22b8:	6c 91       	ld	r22, X
    22ba:	13 97       	sbiw	r26, 0x03	; 3
    22bc:	86 2f       	mov	r24, r22
    22be:	88 0f       	add	r24, r24
    22c0:	89 2b       	or	r24, r25
    22c2:	90 e0       	ldi	r25, 0x00	; 0
    22c4:	66 1f       	adc	r22, r22
    22c6:	66 27       	eor	r22, r22
    22c8:	66 1f       	adc	r22, r22
    22ca:	61 83       	std	Z+1, r22	; 0x01
    22cc:	00 97       	sbiw	r24, 0x00	; 0
    22ce:	39 f5       	brne	.+78     	; 0x231e <__unpack_f+0x88>
    22d0:	21 15       	cp	r18, r1
    22d2:	31 05       	cpc	r19, r1
    22d4:	41 05       	cpc	r20, r1
    22d6:	51 05       	cpc	r21, r1
    22d8:	11 f4       	brne	.+4      	; 0x22de <__unpack_f+0x48>
    22da:	82 e0       	ldi	r24, 0x02	; 2
    22dc:	29 c0       	rjmp	.+82     	; 0x2330 <__unpack_f+0x9a>
    22de:	82 e8       	ldi	r24, 0x82	; 130
    22e0:	9f ef       	ldi	r25, 0xFF	; 255
    22e2:	93 83       	std	Z+3, r25	; 0x03
    22e4:	82 83       	std	Z+2, r24	; 0x02
    22e6:	67 e0       	ldi	r22, 0x07	; 7
    22e8:	22 0f       	add	r18, r18
    22ea:	33 1f       	adc	r19, r19
    22ec:	44 1f       	adc	r20, r20
    22ee:	55 1f       	adc	r21, r21
    22f0:	6a 95       	dec	r22
    22f2:	d1 f7       	brne	.-12     	; 0x22e8 <__unpack_f+0x52>
    22f4:	83 e0       	ldi	r24, 0x03	; 3
    22f6:	80 83       	st	Z, r24
    22f8:	09 c0       	rjmp	.+18     	; 0x230c <__unpack_f+0x76>
    22fa:	22 0f       	add	r18, r18
    22fc:	33 1f       	adc	r19, r19
    22fe:	44 1f       	adc	r20, r20
    2300:	55 1f       	adc	r21, r21
    2302:	82 81       	ldd	r24, Z+2	; 0x02
    2304:	93 81       	ldd	r25, Z+3	; 0x03
    2306:	01 97       	sbiw	r24, 0x01	; 1
    2308:	93 83       	std	Z+3, r25	; 0x03
    230a:	82 83       	std	Z+2, r24	; 0x02
    230c:	20 30       	cpi	r18, 0x00	; 0
    230e:	80 e0       	ldi	r24, 0x00	; 0
    2310:	38 07       	cpc	r19, r24
    2312:	80 e0       	ldi	r24, 0x00	; 0
    2314:	48 07       	cpc	r20, r24
    2316:	80 e4       	ldi	r24, 0x40	; 64
    2318:	58 07       	cpc	r21, r24
    231a:	78 f3       	brcs	.-34     	; 0x22fa <__unpack_f+0x64>
    231c:	20 c0       	rjmp	.+64     	; 0x235e <__unpack_f+0xc8>
    231e:	8f 3f       	cpi	r24, 0xFF	; 255
    2320:	91 05       	cpc	r25, r1
    2322:	79 f4       	brne	.+30     	; 0x2342 <__unpack_f+0xac>
    2324:	21 15       	cp	r18, r1
    2326:	31 05       	cpc	r19, r1
    2328:	41 05       	cpc	r20, r1
    232a:	51 05       	cpc	r21, r1
    232c:	19 f4       	brne	.+6      	; 0x2334 <__unpack_f+0x9e>
    232e:	84 e0       	ldi	r24, 0x04	; 4
    2330:	80 83       	st	Z, r24
    2332:	08 95       	ret
    2334:	44 ff       	sbrs	r20, 4
    2336:	03 c0       	rjmp	.+6      	; 0x233e <__unpack_f+0xa8>
    2338:	81 e0       	ldi	r24, 0x01	; 1
    233a:	80 83       	st	Z, r24
    233c:	10 c0       	rjmp	.+32     	; 0x235e <__unpack_f+0xc8>
    233e:	10 82       	st	Z, r1
    2340:	0e c0       	rjmp	.+28     	; 0x235e <__unpack_f+0xc8>
    2342:	8f 57       	subi	r24, 0x7F	; 127
    2344:	90 40       	sbci	r25, 0x00	; 0
    2346:	93 83       	std	Z+3, r25	; 0x03
    2348:	82 83       	std	Z+2, r24	; 0x02
    234a:	83 e0       	ldi	r24, 0x03	; 3
    234c:	80 83       	st	Z, r24
    234e:	87 e0       	ldi	r24, 0x07	; 7
    2350:	22 0f       	add	r18, r18
    2352:	33 1f       	adc	r19, r19
    2354:	44 1f       	adc	r20, r20
    2356:	55 1f       	adc	r21, r21
    2358:	8a 95       	dec	r24
    235a:	d1 f7       	brne	.-12     	; 0x2350 <__unpack_f+0xba>
    235c:	50 64       	ori	r21, 0x40	; 64
    235e:	24 83       	std	Z+4, r18	; 0x04
    2360:	35 83       	std	Z+5, r19	; 0x05
    2362:	46 83       	std	Z+6, r20	; 0x06
    2364:	57 83       	std	Z+7, r21	; 0x07
    2366:	08 95       	ret

00002368 <__fpcmp_parts_f>:
    2368:	fc 01       	movw	r30, r24
    236a:	db 01       	movw	r26, r22
    236c:	90 81       	ld	r25, Z
    236e:	92 30       	cpi	r25, 0x02	; 2
    2370:	08 f4       	brcc	.+2      	; 0x2374 <__fpcmp_parts_f+0xc>
    2372:	49 c0       	rjmp	.+146    	; 0x2406 <__fpcmp_parts_f+0x9e>
    2374:	8c 91       	ld	r24, X
    2376:	82 30       	cpi	r24, 0x02	; 2
    2378:	08 f4       	brcc	.+2      	; 0x237c <__fpcmp_parts_f+0x14>
    237a:	45 c0       	rjmp	.+138    	; 0x2406 <__fpcmp_parts_f+0x9e>
    237c:	94 30       	cpi	r25, 0x04	; 4
    237e:	51 f4       	brne	.+20     	; 0x2394 <__fpcmp_parts_f+0x2c>
    2380:	61 81       	ldd	r22, Z+1	; 0x01
    2382:	84 30       	cpi	r24, 0x04	; 4
    2384:	b1 f5       	brne	.+108    	; 0x23f2 <__fpcmp_parts_f+0x8a>
    2386:	11 96       	adiw	r26, 0x01	; 1
    2388:	2c 91       	ld	r18, X
    238a:	11 97       	sbiw	r26, 0x01	; 1
    238c:	30 e0       	ldi	r19, 0x00	; 0
    238e:	26 1b       	sub	r18, r22
    2390:	31 09       	sbc	r19, r1
    2392:	41 c0       	rjmp	.+130    	; 0x2416 <__fpcmp_parts_f+0xae>
    2394:	84 30       	cpi	r24, 0x04	; 4
    2396:	21 f0       	breq	.+8      	; 0x23a0 <__fpcmp_parts_f+0x38>
    2398:	92 30       	cpi	r25, 0x02	; 2
    239a:	41 f4       	brne	.+16     	; 0x23ac <__fpcmp_parts_f+0x44>
    239c:	82 30       	cpi	r24, 0x02	; 2
    239e:	b1 f1       	breq	.+108    	; 0x240c <__fpcmp_parts_f+0xa4>
    23a0:	11 96       	adiw	r26, 0x01	; 1
    23a2:	8c 91       	ld	r24, X
    23a4:	11 97       	sbiw	r26, 0x01	; 1
    23a6:	88 23       	and	r24, r24
    23a8:	a1 f1       	breq	.+104    	; 0x2412 <__fpcmp_parts_f+0xaa>
    23aa:	2d c0       	rjmp	.+90     	; 0x2406 <__fpcmp_parts_f+0x9e>
    23ac:	61 81       	ldd	r22, Z+1	; 0x01
    23ae:	82 30       	cpi	r24, 0x02	; 2
    23b0:	01 f1       	breq	.+64     	; 0x23f2 <__fpcmp_parts_f+0x8a>
    23b2:	11 96       	adiw	r26, 0x01	; 1
    23b4:	8c 91       	ld	r24, X
    23b6:	11 97       	sbiw	r26, 0x01	; 1
    23b8:	68 17       	cp	r22, r24
    23ba:	d9 f4       	brne	.+54     	; 0x23f2 <__fpcmp_parts_f+0x8a>
    23bc:	22 81       	ldd	r18, Z+2	; 0x02
    23be:	33 81       	ldd	r19, Z+3	; 0x03
    23c0:	12 96       	adiw	r26, 0x02	; 2
    23c2:	8d 91       	ld	r24, X+
    23c4:	9c 91       	ld	r25, X
    23c6:	13 97       	sbiw	r26, 0x03	; 3
    23c8:	82 17       	cp	r24, r18
    23ca:	93 07       	cpc	r25, r19
    23cc:	94 f0       	brlt	.+36     	; 0x23f2 <__fpcmp_parts_f+0x8a>
    23ce:	28 17       	cp	r18, r24
    23d0:	39 07       	cpc	r19, r25
    23d2:	bc f0       	brlt	.+46     	; 0x2402 <__fpcmp_parts_f+0x9a>
    23d4:	24 81       	ldd	r18, Z+4	; 0x04
    23d6:	35 81       	ldd	r19, Z+5	; 0x05
    23d8:	46 81       	ldd	r20, Z+6	; 0x06
    23da:	57 81       	ldd	r21, Z+7	; 0x07
    23dc:	14 96       	adiw	r26, 0x04	; 4
    23de:	8d 91       	ld	r24, X+
    23e0:	9d 91       	ld	r25, X+
    23e2:	0d 90       	ld	r0, X+
    23e4:	bc 91       	ld	r27, X
    23e6:	a0 2d       	mov	r26, r0
    23e8:	82 17       	cp	r24, r18
    23ea:	93 07       	cpc	r25, r19
    23ec:	a4 07       	cpc	r26, r20
    23ee:	b5 07       	cpc	r27, r21
    23f0:	18 f4       	brcc	.+6      	; 0x23f8 <__fpcmp_parts_f+0x90>
    23f2:	66 23       	and	r22, r22
    23f4:	41 f0       	breq	.+16     	; 0x2406 <__fpcmp_parts_f+0x9e>
    23f6:	0d c0       	rjmp	.+26     	; 0x2412 <__fpcmp_parts_f+0xaa>
    23f8:	28 17       	cp	r18, r24
    23fa:	39 07       	cpc	r19, r25
    23fc:	4a 07       	cpc	r20, r26
    23fe:	5b 07       	cpc	r21, r27
    2400:	28 f4       	brcc	.+10     	; 0x240c <__fpcmp_parts_f+0xa4>
    2402:	66 23       	and	r22, r22
    2404:	31 f0       	breq	.+12     	; 0x2412 <__fpcmp_parts_f+0xaa>
    2406:	21 e0       	ldi	r18, 0x01	; 1
    2408:	30 e0       	ldi	r19, 0x00	; 0
    240a:	05 c0       	rjmp	.+10     	; 0x2416 <__fpcmp_parts_f+0xae>
    240c:	20 e0       	ldi	r18, 0x00	; 0
    240e:	30 e0       	ldi	r19, 0x00	; 0
    2410:	02 c0       	rjmp	.+4      	; 0x2416 <__fpcmp_parts_f+0xae>
    2412:	2f ef       	ldi	r18, 0xFF	; 255
    2414:	3f ef       	ldi	r19, 0xFF	; 255
    2416:	c9 01       	movw	r24, r18
    2418:	08 95       	ret

0000241a <__udivmodhi4>:
    241a:	aa 1b       	sub	r26, r26
    241c:	bb 1b       	sub	r27, r27
    241e:	51 e1       	ldi	r21, 0x11	; 17
    2420:	07 c0       	rjmp	.+14     	; 0x2430 <__udivmodhi4_ep>

00002422 <__udivmodhi4_loop>:
    2422:	aa 1f       	adc	r26, r26
    2424:	bb 1f       	adc	r27, r27
    2426:	a6 17       	cp	r26, r22
    2428:	b7 07       	cpc	r27, r23
    242a:	10 f0       	brcs	.+4      	; 0x2430 <__udivmodhi4_ep>
    242c:	a6 1b       	sub	r26, r22
    242e:	b7 0b       	sbc	r27, r23

00002430 <__udivmodhi4_ep>:
    2430:	88 1f       	adc	r24, r24
    2432:	99 1f       	adc	r25, r25
    2434:	5a 95       	dec	r21
    2436:	a9 f7       	brne	.-22     	; 0x2422 <__udivmodhi4_loop>
    2438:	80 95       	com	r24
    243a:	90 95       	com	r25
    243c:	bc 01       	movw	r22, r24
    243e:	cd 01       	movw	r24, r26
    2440:	08 95       	ret

00002442 <__prologue_saves__>:
    2442:	2f 92       	push	r2
    2444:	3f 92       	push	r3
    2446:	4f 92       	push	r4
    2448:	5f 92       	push	r5
    244a:	6f 92       	push	r6
    244c:	7f 92       	push	r7
    244e:	8f 92       	push	r8
    2450:	9f 92       	push	r9
    2452:	af 92       	push	r10
    2454:	bf 92       	push	r11
    2456:	cf 92       	push	r12
    2458:	df 92       	push	r13
    245a:	ef 92       	push	r14
    245c:	ff 92       	push	r15
    245e:	0f 93       	push	r16
    2460:	1f 93       	push	r17
    2462:	cf 93       	push	r28
    2464:	df 93       	push	r29
    2466:	cd b7       	in	r28, 0x3d	; 61
    2468:	de b7       	in	r29, 0x3e	; 62
    246a:	ca 1b       	sub	r28, r26
    246c:	db 0b       	sbc	r29, r27
    246e:	0f b6       	in	r0, 0x3f	; 63
    2470:	f8 94       	cli
    2472:	de bf       	out	0x3e, r29	; 62
    2474:	0f be       	out	0x3f, r0	; 63
    2476:	cd bf       	out	0x3d, r28	; 61
    2478:	09 94       	ijmp

0000247a <__epilogue_restores__>:
    247a:	2a 88       	ldd	r2, Y+18	; 0x12
    247c:	39 88       	ldd	r3, Y+17	; 0x11
    247e:	48 88       	ldd	r4, Y+16	; 0x10
    2480:	5f 84       	ldd	r5, Y+15	; 0x0f
    2482:	6e 84       	ldd	r6, Y+14	; 0x0e
    2484:	7d 84       	ldd	r7, Y+13	; 0x0d
    2486:	8c 84       	ldd	r8, Y+12	; 0x0c
    2488:	9b 84       	ldd	r9, Y+11	; 0x0b
    248a:	aa 84       	ldd	r10, Y+10	; 0x0a
    248c:	b9 84       	ldd	r11, Y+9	; 0x09
    248e:	c8 84       	ldd	r12, Y+8	; 0x08
    2490:	df 80       	ldd	r13, Y+7	; 0x07
    2492:	ee 80       	ldd	r14, Y+6	; 0x06
    2494:	fd 80       	ldd	r15, Y+5	; 0x05
    2496:	0c 81       	ldd	r16, Y+4	; 0x04
    2498:	1b 81       	ldd	r17, Y+3	; 0x03
    249a:	aa 81       	ldd	r26, Y+2	; 0x02
    249c:	b9 81       	ldd	r27, Y+1	; 0x01
    249e:	ce 0f       	add	r28, r30
    24a0:	d1 1d       	adc	r29, r1
    24a2:	0f b6       	in	r0, 0x3f	; 63
    24a4:	f8 94       	cli
    24a6:	de bf       	out	0x3e, r29	; 62
    24a8:	0f be       	out	0x3f, r0	; 63
    24aa:	cd bf       	out	0x3d, r28	; 61
    24ac:	ed 01       	movw	r28, r26
    24ae:	08 95       	ret

000024b0 <dtostrf>:
    24b0:	ef 92       	push	r14
    24b2:	ff 92       	push	r15
    24b4:	0f 93       	push	r16
    24b6:	1f 93       	push	r17
    24b8:	32 2f       	mov	r19, r18
    24ba:	f0 2e       	mov	r15, r16
    24bc:	47 ff       	sbrs	r20, 7
    24be:	02 c0       	rjmp	.+4      	; 0x24c4 <dtostrf+0x14>
    24c0:	a4 e1       	ldi	r26, 0x14	; 20
    24c2:	01 c0       	rjmp	.+2      	; 0x24c6 <dtostrf+0x16>
    24c4:	a4 e0       	ldi	r26, 0x04	; 4
    24c6:	e4 2f       	mov	r30, r20
    24c8:	ff 27       	eor	r31, r31
    24ca:	e7 fd       	sbrc	r30, 7
    24cc:	f0 95       	com	r31
    24ce:	f7 ff       	sbrs	r31, 7
    24d0:	03 c0       	rjmp	.+6      	; 0x24d8 <dtostrf+0x28>
    24d2:	f0 95       	com	r31
    24d4:	e1 95       	neg	r30
    24d6:	ff 4f       	sbci	r31, 0xFF	; 255
    24d8:	4f 2d       	mov	r20, r15
    24da:	51 2f       	mov	r21, r17
    24dc:	2e 2f       	mov	r18, r30
    24de:	03 2f       	mov	r16, r19
    24e0:	ea 2e       	mov	r14, r26
    24e2:	0e 94 9b 12 	call	0x2536	; 0x2536 <dtoa_prf>
    24e6:	8f 2d       	mov	r24, r15
    24e8:	91 2f       	mov	r25, r17
    24ea:	1f 91       	pop	r17
    24ec:	0f 91       	pop	r16
    24ee:	ff 90       	pop	r15
    24f0:	ef 90       	pop	r14
    24f2:	08 95       	ret

000024f4 <itoa>:
    24f4:	fb 01       	movw	r30, r22
    24f6:	9f 01       	movw	r18, r30
    24f8:	e8 94       	clt
    24fa:	42 30       	cpi	r20, 0x02	; 2
    24fc:	c4 f0       	brlt	.+48     	; 0x252e <itoa+0x3a>
    24fe:	45 32       	cpi	r20, 0x25	; 37
    2500:	b4 f4       	brge	.+44     	; 0x252e <itoa+0x3a>
    2502:	4a 30       	cpi	r20, 0x0A	; 10
    2504:	29 f4       	brne	.+10     	; 0x2510 <itoa+0x1c>
    2506:	97 fb       	bst	r25, 7
    2508:	1e f4       	brtc	.+6      	; 0x2510 <itoa+0x1c>
    250a:	90 95       	com	r25
    250c:	81 95       	neg	r24
    250e:	9f 4f       	sbci	r25, 0xFF	; 255
    2510:	64 2f       	mov	r22, r20
    2512:	77 27       	eor	r23, r23
    2514:	0e 94 0d 12 	call	0x241a	; 0x241a <__udivmodhi4>
    2518:	80 5d       	subi	r24, 0xD0	; 208
    251a:	8a 33       	cpi	r24, 0x3A	; 58
    251c:	0c f0       	brlt	.+2      	; 0x2520 <itoa+0x2c>
    251e:	89 5d       	subi	r24, 0xD9	; 217
    2520:	81 93       	st	Z+, r24
    2522:	cb 01       	movw	r24, r22
    2524:	00 97       	sbiw	r24, 0x00	; 0
    2526:	a1 f7       	brne	.-24     	; 0x2510 <itoa+0x1c>
    2528:	16 f4       	brtc	.+4      	; 0x252e <itoa+0x3a>
    252a:	5d e2       	ldi	r21, 0x2D	; 45
    252c:	51 93       	st	Z+, r21
    252e:	10 82       	st	Z, r1
    2530:	c9 01       	movw	r24, r18
    2532:	0c 94 e3 14 	jmp	0x29c6	; 0x29c6 <strrev>

00002536 <dtoa_prf>:
    2536:	af 92       	push	r10
    2538:	bf 92       	push	r11
    253a:	cf 92       	push	r12
    253c:	df 92       	push	r13
    253e:	ef 92       	push	r14
    2540:	ff 92       	push	r15
    2542:	0f 93       	push	r16
    2544:	1f 93       	push	r17
    2546:	df 93       	push	r29
    2548:	cf 93       	push	r28
    254a:	cd b7       	in	r28, 0x3d	; 61
    254c:	de b7       	in	r29, 0x3e	; 62
    254e:	29 97       	sbiw	r28, 0x09	; 9
    2550:	0f b6       	in	r0, 0x3f	; 63
    2552:	f8 94       	cli
    2554:	de bf       	out	0x3e, r29	; 62
    2556:	0f be       	out	0x3f, r0	; 63
    2558:	cd bf       	out	0x3d, r28	; 61
    255a:	6a 01       	movw	r12, r20
    255c:	f2 2e       	mov	r15, r18
    255e:	10 2f       	mov	r17, r16
    2560:	0c 33       	cpi	r16, 0x3C	; 60
    2562:	18 f4       	brcc	.+6      	; 0x256a <dtoa_prf+0x34>
    2564:	b0 2e       	mov	r11, r16
    2566:	b3 94       	inc	r11
    2568:	02 c0       	rjmp	.+4      	; 0x256e <dtoa_prf+0x38>
    256a:	ec e3       	ldi	r30, 0x3C	; 60
    256c:	be 2e       	mov	r11, r30
    256e:	ae 01       	movw	r20, r28
    2570:	4f 5f       	subi	r20, 0xFF	; 255
    2572:	5f 4f       	sbci	r21, 0xFF	; 255
    2574:	27 e0       	ldi	r18, 0x07	; 7
    2576:	0b 2d       	mov	r16, r11
    2578:	0e 94 0b 14 	call	0x2816	; 0x2816 <__ftoa_engine>
    257c:	29 81       	ldd	r18, Y+1	; 0x01
    257e:	30 e0       	ldi	r19, 0x00	; 0
    2580:	a9 01       	movw	r20, r18
    2582:	49 70       	andi	r20, 0x09	; 9
    2584:	50 70       	andi	r21, 0x00	; 0
    2586:	41 30       	cpi	r20, 0x01	; 1
    2588:	51 05       	cpc	r21, r1
    258a:	31 f0       	breq	.+12     	; 0x2598 <dtoa_prf+0x62>
    258c:	e1 fc       	sbrc	r14, 1
    258e:	06 c0       	rjmp	.+12     	; 0x259c <dtoa_prf+0x66>
    2590:	e0 fe       	sbrs	r14, 0
    2592:	06 c0       	rjmp	.+12     	; 0x25a0 <dtoa_prf+0x6a>
    2594:	e0 e2       	ldi	r30, 0x20	; 32
    2596:	05 c0       	rjmp	.+10     	; 0x25a2 <dtoa_prf+0x6c>
    2598:	ed e2       	ldi	r30, 0x2D	; 45
    259a:	03 c0       	rjmp	.+6      	; 0x25a2 <dtoa_prf+0x6c>
    259c:	eb e2       	ldi	r30, 0x2B	; 43
    259e:	01 c0       	rjmp	.+2      	; 0x25a2 <dtoa_prf+0x6c>
    25a0:	e0 e0       	ldi	r30, 0x00	; 0
    25a2:	23 ff       	sbrs	r18, 3
    25a4:	37 c0       	rjmp	.+110    	; 0x2614 <dtoa_prf+0xde>
    25a6:	ee 23       	and	r30, r30
    25a8:	11 f0       	breq	.+4      	; 0x25ae <dtoa_prf+0x78>
    25aa:	84 e0       	ldi	r24, 0x04	; 4
    25ac:	01 c0       	rjmp	.+2      	; 0x25b0 <dtoa_prf+0x7a>
    25ae:	83 e0       	ldi	r24, 0x03	; 3
    25b0:	8f 15       	cp	r24, r15
    25b2:	18 f4       	brcc	.+6      	; 0x25ba <dtoa_prf+0x84>
    25b4:	f8 1a       	sub	r15, r24
    25b6:	8f 2d       	mov	r24, r15
    25b8:	01 c0       	rjmp	.+2      	; 0x25bc <dtoa_prf+0x86>
    25ba:	80 e0       	ldi	r24, 0x00	; 0
    25bc:	e4 fc       	sbrc	r14, 4
    25be:	0b c0       	rjmp	.+22     	; 0x25d6 <dtoa_prf+0xa0>
    25c0:	98 2f       	mov	r25, r24
    25c2:	d6 01       	movw	r26, r12
    25c4:	20 e2       	ldi	r18, 0x20	; 32
    25c6:	02 c0       	rjmp	.+4      	; 0x25cc <dtoa_prf+0x96>
    25c8:	2d 93       	st	X+, r18
    25ca:	91 50       	subi	r25, 0x01	; 1
    25cc:	99 23       	and	r25, r25
    25ce:	e1 f7       	brne	.-8      	; 0x25c8 <dtoa_prf+0x92>
    25d0:	c8 0e       	add	r12, r24
    25d2:	d1 1c       	adc	r13, r1
    25d4:	80 e0       	ldi	r24, 0x00	; 0
    25d6:	ee 23       	and	r30, r30
    25d8:	19 f0       	breq	.+6      	; 0x25e0 <dtoa_prf+0xaa>
    25da:	d6 01       	movw	r26, r12
    25dc:	ed 93       	st	X+, r30
    25de:	6d 01       	movw	r12, r26
    25e0:	f6 01       	movw	r30, r12
    25e2:	31 96       	adiw	r30, 0x01	; 1
    25e4:	e2 fe       	sbrs	r14, 2
    25e6:	05 c0       	rjmp	.+10     	; 0x25f2 <dtoa_prf+0xbc>
    25e8:	9e e4       	ldi	r25, 0x4E	; 78
    25ea:	d6 01       	movw	r26, r12
    25ec:	9c 93       	st	X, r25
    25ee:	21 e4       	ldi	r18, 0x41	; 65
    25f0:	04 c0       	rjmp	.+8      	; 0x25fa <dtoa_prf+0xc4>
    25f2:	9e e6       	ldi	r25, 0x6E	; 110
    25f4:	d6 01       	movw	r26, r12
    25f6:	9c 93       	st	X, r25
    25f8:	21 e6       	ldi	r18, 0x61	; 97
    25fa:	11 96       	adiw	r26, 0x01	; 1
    25fc:	2c 93       	st	X, r18
    25fe:	91 83       	std	Z+1, r25	; 0x01
    2600:	32 96       	adiw	r30, 0x02	; 2
    2602:	98 2f       	mov	r25, r24
    2604:	df 01       	movw	r26, r30
    2606:	20 e2       	ldi	r18, 0x20	; 32
    2608:	02 c0       	rjmp	.+4      	; 0x260e <dtoa_prf+0xd8>
    260a:	2d 93       	st	X+, r18
    260c:	91 50       	subi	r25, 0x01	; 1
    260e:	99 23       	and	r25, r25
    2610:	e1 f7       	brne	.-8      	; 0x260a <dtoa_prf+0xd4>
    2612:	3d c0       	rjmp	.+122    	; 0x268e <dtoa_prf+0x158>
    2614:	22 ff       	sbrs	r18, 2
    2616:	41 c0       	rjmp	.+130    	; 0x269a <dtoa_prf+0x164>
    2618:	ee 23       	and	r30, r30
    261a:	11 f0       	breq	.+4      	; 0x2620 <dtoa_prf+0xea>
    261c:	84 e0       	ldi	r24, 0x04	; 4
    261e:	01 c0       	rjmp	.+2      	; 0x2622 <dtoa_prf+0xec>
    2620:	83 e0       	ldi	r24, 0x03	; 3
    2622:	8f 15       	cp	r24, r15
    2624:	18 f4       	brcc	.+6      	; 0x262c <dtoa_prf+0xf6>
    2626:	f8 1a       	sub	r15, r24
    2628:	8f 2d       	mov	r24, r15
    262a:	01 c0       	rjmp	.+2      	; 0x262e <dtoa_prf+0xf8>
    262c:	80 e0       	ldi	r24, 0x00	; 0
    262e:	e4 fc       	sbrc	r14, 4
    2630:	0b c0       	rjmp	.+22     	; 0x2648 <dtoa_prf+0x112>
    2632:	98 2f       	mov	r25, r24
    2634:	d6 01       	movw	r26, r12
    2636:	20 e2       	ldi	r18, 0x20	; 32
    2638:	02 c0       	rjmp	.+4      	; 0x263e <dtoa_prf+0x108>
    263a:	2d 93       	st	X+, r18
    263c:	91 50       	subi	r25, 0x01	; 1
    263e:	99 23       	and	r25, r25
    2640:	e1 f7       	brne	.-8      	; 0x263a <dtoa_prf+0x104>
    2642:	c8 0e       	add	r12, r24
    2644:	d1 1c       	adc	r13, r1
    2646:	80 e0       	ldi	r24, 0x00	; 0
    2648:	ee 23       	and	r30, r30
    264a:	19 f0       	breq	.+6      	; 0x2652 <dtoa_prf+0x11c>
    264c:	d6 01       	movw	r26, r12
    264e:	ed 93       	st	X+, r30
    2650:	6d 01       	movw	r12, r26
    2652:	f6 01       	movw	r30, r12
    2654:	31 96       	adiw	r30, 0x01	; 1
    2656:	e2 fe       	sbrs	r14, 2
    2658:	09 c0       	rjmp	.+18     	; 0x266c <dtoa_prf+0x136>
    265a:	99 e4       	ldi	r25, 0x49	; 73
    265c:	d6 01       	movw	r26, r12
    265e:	9c 93       	st	X, r25
    2660:	9e e4       	ldi	r25, 0x4E	; 78
    2662:	11 96       	adiw	r26, 0x01	; 1
    2664:	9c 93       	st	X, r25
    2666:	11 97       	sbiw	r26, 0x01	; 1
    2668:	96 e4       	ldi	r25, 0x46	; 70
    266a:	07 c0       	rjmp	.+14     	; 0x267a <dtoa_prf+0x144>
    266c:	99 e6       	ldi	r25, 0x69	; 105
    266e:	d6 01       	movw	r26, r12
    2670:	9c 93       	st	X, r25
    2672:	9e e6       	ldi	r25, 0x6E	; 110
    2674:	11 96       	adiw	r26, 0x01	; 1
    2676:	9c 93       	st	X, r25
    2678:	96 e6       	ldi	r25, 0x66	; 102
    267a:	91 83       	std	Z+1, r25	; 0x01
    267c:	32 96       	adiw	r30, 0x02	; 2
    267e:	98 2f       	mov	r25, r24
    2680:	df 01       	movw	r26, r30
    2682:	20 e2       	ldi	r18, 0x20	; 32
    2684:	02 c0       	rjmp	.+4      	; 0x268a <dtoa_prf+0x154>
    2686:	2d 93       	st	X+, r18
    2688:	91 50       	subi	r25, 0x01	; 1
    268a:	99 23       	and	r25, r25
    268c:	e1 f7       	brne	.-8      	; 0x2686 <dtoa_prf+0x150>
    268e:	e8 0f       	add	r30, r24
    2690:	f1 1d       	adc	r31, r1
    2692:	10 82       	st	Z, r1
    2694:	2e ef       	ldi	r18, 0xFE	; 254
    2696:	3f ef       	ldi	r19, 0xFF	; 255
    2698:	ac c0       	rjmp	.+344    	; 0x27f2 <dtoa_prf+0x2bc>
    269a:	41 e0       	ldi	r20, 0x01	; 1
    269c:	50 e0       	ldi	r21, 0x00	; 0
    269e:	ee 23       	and	r30, r30
    26a0:	11 f4       	brne	.+4      	; 0x26a6 <dtoa_prf+0x170>
    26a2:	40 e0       	ldi	r20, 0x00	; 0
    26a4:	50 e0       	ldi	r21, 0x00	; 0
    26a6:	18 16       	cp	r1, r24
    26a8:	19 06       	cpc	r1, r25
    26aa:	24 f4       	brge	.+8      	; 0x26b4 <dtoa_prf+0x17e>
    26ac:	bc 01       	movw	r22, r24
    26ae:	6f 5f       	subi	r22, 0xFF	; 255
    26b0:	7f 4f       	sbci	r23, 0xFF	; 255
    26b2:	02 c0       	rjmp	.+4      	; 0x26b8 <dtoa_prf+0x182>
    26b4:	61 e0       	ldi	r22, 0x01	; 1
    26b6:	70 e0       	ldi	r23, 0x00	; 0
    26b8:	64 0f       	add	r22, r20
    26ba:	75 1f       	adc	r23, r21
    26bc:	11 23       	and	r17, r17
    26be:	29 f0       	breq	.+10     	; 0x26ca <dtoa_prf+0x194>
    26c0:	41 2f       	mov	r20, r17
    26c2:	50 e0       	ldi	r21, 0x00	; 0
    26c4:	4f 5f       	subi	r20, 0xFF	; 255
    26c6:	5f 4f       	sbci	r21, 0xFF	; 255
    26c8:	02 c0       	rjmp	.+4      	; 0x26ce <dtoa_prf+0x198>
    26ca:	40 e0       	ldi	r20, 0x00	; 0
    26cc:	50 e0       	ldi	r21, 0x00	; 0
    26ce:	46 0f       	add	r20, r22
    26d0:	57 1f       	adc	r21, r23
    26d2:	6f 2d       	mov	r22, r15
    26d4:	70 e0       	ldi	r23, 0x00	; 0
    26d6:	46 17       	cp	r20, r22
    26d8:	57 07       	cpc	r21, r23
    26da:	1c f4       	brge	.+6      	; 0x26e2 <dtoa_prf+0x1ac>
    26dc:	0f 2d       	mov	r16, r15
    26de:	04 1b       	sub	r16, r20
    26e0:	01 c0       	rjmp	.+2      	; 0x26e4 <dtoa_prf+0x1ae>
    26e2:	00 e0       	ldi	r16, 0x00	; 0
    26e4:	ff 24       	eor	r15, r15
    26e6:	a7 01       	movw	r20, r14
    26e8:	40 71       	andi	r20, 0x10	; 16
    26ea:	50 70       	andi	r21, 0x00	; 0
    26ec:	e4 fc       	sbrc	r14, 4
    26ee:	0d c0       	rjmp	.+26     	; 0x270a <dtoa_prf+0x1d4>
    26f0:	e3 fc       	sbrc	r14, 3
    26f2:	0b c0       	rjmp	.+22     	; 0x270a <dtoa_prf+0x1d4>
    26f4:	60 2f       	mov	r22, r16
    26f6:	d6 01       	movw	r26, r12
    26f8:	70 e2       	ldi	r23, 0x20	; 32
    26fa:	02 c0       	rjmp	.+4      	; 0x2700 <dtoa_prf+0x1ca>
    26fc:	7d 93       	st	X+, r23
    26fe:	61 50       	subi	r22, 0x01	; 1
    2700:	66 23       	and	r22, r22
    2702:	e1 f7       	brne	.-8      	; 0x26fc <dtoa_prf+0x1c6>
    2704:	c0 0e       	add	r12, r16
    2706:	d1 1c       	adc	r13, r1
    2708:	00 e0       	ldi	r16, 0x00	; 0
    270a:	ee 23       	and	r30, r30
    270c:	19 f0       	breq	.+6      	; 0x2714 <dtoa_prf+0x1de>
    270e:	d6 01       	movw	r26, r12
    2710:	ed 93       	st	X+, r30
    2712:	6d 01       	movw	r12, r26
    2714:	41 15       	cp	r20, r1
    2716:	51 05       	cpc	r21, r1
    2718:	59 f4       	brne	.+22     	; 0x2730 <dtoa_prf+0x1fa>
    271a:	40 2f       	mov	r20, r16
    271c:	f6 01       	movw	r30, r12
    271e:	50 e3       	ldi	r21, 0x30	; 48
    2720:	02 c0       	rjmp	.+4      	; 0x2726 <dtoa_prf+0x1f0>
    2722:	51 93       	st	Z+, r21
    2724:	41 50       	subi	r20, 0x01	; 1
    2726:	44 23       	and	r20, r20
    2728:	e1 f7       	brne	.-8      	; 0x2722 <dtoa_prf+0x1ec>
    272a:	c0 0e       	add	r12, r16
    272c:	d1 1c       	adc	r13, r1
    272e:	00 e0       	ldi	r16, 0x00	; 0
    2730:	b8 0e       	add	r11, r24
    2732:	fa 80       	ldd	r15, Y+2	; 0x02
    2734:	a9 01       	movw	r20, r18
    2736:	40 71       	andi	r20, 0x10	; 16
    2738:	50 70       	andi	r21, 0x00	; 0
    273a:	24 ff       	sbrs	r18, 4
    273c:	04 c0       	rjmp	.+8      	; 0x2746 <dtoa_prf+0x210>
    273e:	bf 2d       	mov	r27, r15
    2740:	b1 33       	cpi	r27, 0x31	; 49
    2742:	09 f4       	brne	.+2      	; 0x2746 <dtoa_prf+0x210>
    2744:	ba 94       	dec	r11
    2746:	1b 14       	cp	r1, r11
    2748:	2c f4       	brge	.+10     	; 0x2754 <dtoa_prf+0x21e>
    274a:	ab 2d       	mov	r26, r11
    274c:	a9 30       	cpi	r26, 0x09	; 9
    274e:	18 f0       	brcs	.+6      	; 0x2756 <dtoa_prf+0x220>
    2750:	a8 e0       	ldi	r26, 0x08	; 8
    2752:	01 c0       	rjmp	.+2      	; 0x2756 <dtoa_prf+0x220>
    2754:	a1 e0       	ldi	r26, 0x01	; 1
    2756:	9c 01       	movw	r18, r24
    2758:	97 ff       	sbrs	r25, 7
    275a:	02 c0       	rjmp	.+4      	; 0x2760 <dtoa_prf+0x22a>
    275c:	20 e0       	ldi	r18, 0x00	; 0
    275e:	30 e0       	ldi	r19, 0x00	; 0
    2760:	bc 01       	movw	r22, r24
    2762:	6f 5f       	subi	r22, 0xFF	; 255
    2764:	7f 4f       	sbci	r23, 0xFF	; 255
    2766:	62 1b       	sub	r22, r18
    2768:	73 0b       	sbc	r23, r19
    276a:	fe 01       	movw	r30, r28
    276c:	31 96       	adiw	r30, 0x01	; 1
    276e:	e6 0f       	add	r30, r22
    2770:	f7 1f       	adc	r31, r23
    2772:	6e e2       	ldi	r22, 0x2E	; 46
    2774:	e6 2e       	mov	r14, r22
    2776:	bc 01       	movw	r22, r24
    2778:	6a 1b       	sub	r22, r26
    277a:	71 09       	sbc	r23, r1
    277c:	a1 2f       	mov	r26, r17
    277e:	b0 e0       	ldi	r27, 0x00	; 0
    2780:	aa 24       	eor	r10, r10
    2782:	bb 24       	eor	r11, r11
    2784:	aa 1a       	sub	r10, r26
    2786:	bb 0a       	sbc	r11, r27
    2788:	1f ef       	ldi	r17, 0xFF	; 255
    278a:	2f 3f       	cpi	r18, 0xFF	; 255
    278c:	31 07       	cpc	r19, r17
    278e:	19 f4       	brne	.+6      	; 0x2796 <dtoa_prf+0x260>
    2790:	d6 01       	movw	r26, r12
    2792:	ed 92       	st	X+, r14
    2794:	6d 01       	movw	r12, r26
    2796:	82 17       	cp	r24, r18
    2798:	93 07       	cpc	r25, r19
    279a:	2c f0       	brlt	.+10     	; 0x27a6 <dtoa_prf+0x270>
    279c:	62 17       	cp	r22, r18
    279e:	73 07       	cpc	r23, r19
    27a0:	14 f4       	brge	.+4      	; 0x27a6 <dtoa_prf+0x270>
    27a2:	10 81       	ld	r17, Z
    27a4:	01 c0       	rjmp	.+2      	; 0x27a8 <dtoa_prf+0x272>
    27a6:	10 e3       	ldi	r17, 0x30	; 48
    27a8:	21 50       	subi	r18, 0x01	; 1
    27aa:	30 40       	sbci	r19, 0x00	; 0
    27ac:	31 96       	adiw	r30, 0x01	; 1
    27ae:	2a 15       	cp	r18, r10
    27b0:	3b 05       	cpc	r19, r11
    27b2:	24 f0       	brlt	.+8      	; 0x27bc <dtoa_prf+0x286>
    27b4:	d6 01       	movw	r26, r12
    27b6:	1d 93       	st	X+, r17
    27b8:	6d 01       	movw	r12, r26
    27ba:	e6 cf       	rjmp	.-52     	; 0x2788 <dtoa_prf+0x252>
    27bc:	28 17       	cp	r18, r24
    27be:	39 07       	cpc	r19, r25
    27c0:	49 f4       	brne	.+18     	; 0x27d4 <dtoa_prf+0x29e>
    27c2:	bf 2d       	mov	r27, r15
    27c4:	b6 33       	cpi	r27, 0x36	; 54
    27c6:	28 f4       	brcc	.+10     	; 0x27d2 <dtoa_prf+0x29c>
    27c8:	b5 33       	cpi	r27, 0x35	; 53
    27ca:	21 f4       	brne	.+8      	; 0x27d4 <dtoa_prf+0x29e>
    27cc:	41 15       	cp	r20, r1
    27ce:	51 05       	cpc	r21, r1
    27d0:	09 f4       	brne	.+2      	; 0x27d4 <dtoa_prf+0x29e>
    27d2:	11 e3       	ldi	r17, 0x31	; 49
    27d4:	f6 01       	movw	r30, r12
    27d6:	11 93       	st	Z+, r17
    27d8:	80 2f       	mov	r24, r16
    27da:	df 01       	movw	r26, r30
    27dc:	90 e2       	ldi	r25, 0x20	; 32
    27de:	02 c0       	rjmp	.+4      	; 0x27e4 <dtoa_prf+0x2ae>
    27e0:	9d 93       	st	X+, r25
    27e2:	81 50       	subi	r24, 0x01	; 1
    27e4:	88 23       	and	r24, r24
    27e6:	e1 f7       	brne	.-8      	; 0x27e0 <dtoa_prf+0x2aa>
    27e8:	e0 0f       	add	r30, r16
    27ea:	f1 1d       	adc	r31, r1
    27ec:	10 82       	st	Z, r1
    27ee:	20 e0       	ldi	r18, 0x00	; 0
    27f0:	30 e0       	ldi	r19, 0x00	; 0
    27f2:	c9 01       	movw	r24, r18
    27f4:	29 96       	adiw	r28, 0x09	; 9
    27f6:	0f b6       	in	r0, 0x3f	; 63
    27f8:	f8 94       	cli
    27fa:	de bf       	out	0x3e, r29	; 62
    27fc:	0f be       	out	0x3f, r0	; 63
    27fe:	cd bf       	out	0x3d, r28	; 61
    2800:	cf 91       	pop	r28
    2802:	df 91       	pop	r29
    2804:	1f 91       	pop	r17
    2806:	0f 91       	pop	r16
    2808:	ff 90       	pop	r15
    280a:	ef 90       	pop	r14
    280c:	df 90       	pop	r13
    280e:	cf 90       	pop	r12
    2810:	bf 90       	pop	r11
    2812:	af 90       	pop	r10
    2814:	08 95       	ret

00002816 <__ftoa_engine>:
    2816:	28 30       	cpi	r18, 0x08	; 8
    2818:	08 f0       	brcs	.+2      	; 0x281c <__ftoa_engine+0x6>
    281a:	27 e0       	ldi	r18, 0x07	; 7
    281c:	33 27       	eor	r19, r19
    281e:	da 01       	movw	r26, r20
    2820:	99 0f       	add	r25, r25
    2822:	31 1d       	adc	r19, r1
    2824:	87 fd       	sbrc	r24, 7
    2826:	91 60       	ori	r25, 0x01	; 1
    2828:	00 96       	adiw	r24, 0x00	; 0
    282a:	61 05       	cpc	r22, r1
    282c:	71 05       	cpc	r23, r1
    282e:	39 f4       	brne	.+14     	; 0x283e <__ftoa_engine+0x28>
    2830:	32 60       	ori	r19, 0x02	; 2
    2832:	2e 5f       	subi	r18, 0xFE	; 254
    2834:	3d 93       	st	X+, r19
    2836:	30 e3       	ldi	r19, 0x30	; 48
    2838:	2a 95       	dec	r18
    283a:	e1 f7       	brne	.-8      	; 0x2834 <__ftoa_engine+0x1e>
    283c:	08 95       	ret
    283e:	9f 3f       	cpi	r25, 0xFF	; 255
    2840:	30 f0       	brcs	.+12     	; 0x284e <__ftoa_engine+0x38>
    2842:	80 38       	cpi	r24, 0x80	; 128
    2844:	71 05       	cpc	r23, r1
    2846:	61 05       	cpc	r22, r1
    2848:	09 f0       	breq	.+2      	; 0x284c <__ftoa_engine+0x36>
    284a:	3c 5f       	subi	r19, 0xFC	; 252
    284c:	3c 5f       	subi	r19, 0xFC	; 252
    284e:	3d 93       	st	X+, r19
    2850:	91 30       	cpi	r25, 0x01	; 1
    2852:	08 f0       	brcs	.+2      	; 0x2856 <__ftoa_engine+0x40>
    2854:	80 68       	ori	r24, 0x80	; 128
    2856:	91 1d       	adc	r25, r1
    2858:	df 93       	push	r29
    285a:	cf 93       	push	r28
    285c:	1f 93       	push	r17
    285e:	0f 93       	push	r16
    2860:	ff 92       	push	r15
    2862:	ef 92       	push	r14
    2864:	19 2f       	mov	r17, r25
    2866:	98 7f       	andi	r25, 0xF8	; 248
    2868:	96 95       	lsr	r25
    286a:	e9 2f       	mov	r30, r25
    286c:	96 95       	lsr	r25
    286e:	96 95       	lsr	r25
    2870:	e9 0f       	add	r30, r25
    2872:	ff 27       	eor	r31, r31
    2874:	ea 53       	subi	r30, 0x3A	; 58
    2876:	fd 4f       	sbci	r31, 0xFD	; 253
    2878:	99 27       	eor	r25, r25
    287a:	33 27       	eor	r19, r19
    287c:	ee 24       	eor	r14, r14
    287e:	ff 24       	eor	r15, r15
    2880:	a7 01       	movw	r20, r14
    2882:	e7 01       	movw	r28, r14
    2884:	05 90       	lpm	r0, Z+
    2886:	08 94       	sec
    2888:	07 94       	ror	r0
    288a:	28 f4       	brcc	.+10     	; 0x2896 <__ftoa_engine+0x80>
    288c:	36 0f       	add	r19, r22
    288e:	e7 1e       	adc	r14, r23
    2890:	f8 1e       	adc	r15, r24
    2892:	49 1f       	adc	r20, r25
    2894:	51 1d       	adc	r21, r1
    2896:	66 0f       	add	r22, r22
    2898:	77 1f       	adc	r23, r23
    289a:	88 1f       	adc	r24, r24
    289c:	99 1f       	adc	r25, r25
    289e:	06 94       	lsr	r0
    28a0:	a1 f7       	brne	.-24     	; 0x288a <__ftoa_engine+0x74>
    28a2:	05 90       	lpm	r0, Z+
    28a4:	07 94       	ror	r0
    28a6:	28 f4       	brcc	.+10     	; 0x28b2 <__ftoa_engine+0x9c>
    28a8:	e7 0e       	add	r14, r23
    28aa:	f8 1e       	adc	r15, r24
    28ac:	49 1f       	adc	r20, r25
    28ae:	56 1f       	adc	r21, r22
    28b0:	c1 1d       	adc	r28, r1
    28b2:	77 0f       	add	r23, r23
    28b4:	88 1f       	adc	r24, r24
    28b6:	99 1f       	adc	r25, r25
    28b8:	66 1f       	adc	r22, r22
    28ba:	06 94       	lsr	r0
    28bc:	a1 f7       	brne	.-24     	; 0x28a6 <__ftoa_engine+0x90>
    28be:	05 90       	lpm	r0, Z+
    28c0:	07 94       	ror	r0
    28c2:	28 f4       	brcc	.+10     	; 0x28ce <__ftoa_engine+0xb8>
    28c4:	f8 0e       	add	r15, r24
    28c6:	49 1f       	adc	r20, r25
    28c8:	56 1f       	adc	r21, r22
    28ca:	c7 1f       	adc	r28, r23
    28cc:	d1 1d       	adc	r29, r1
    28ce:	88 0f       	add	r24, r24
    28d0:	99 1f       	adc	r25, r25
    28d2:	66 1f       	adc	r22, r22
    28d4:	77 1f       	adc	r23, r23
    28d6:	06 94       	lsr	r0
    28d8:	a1 f7       	brne	.-24     	; 0x28c2 <__ftoa_engine+0xac>
    28da:	05 90       	lpm	r0, Z+
    28dc:	07 94       	ror	r0
    28de:	20 f4       	brcc	.+8      	; 0x28e8 <__ftoa_engine+0xd2>
    28e0:	49 0f       	add	r20, r25
    28e2:	56 1f       	adc	r21, r22
    28e4:	c7 1f       	adc	r28, r23
    28e6:	d8 1f       	adc	r29, r24
    28e8:	99 0f       	add	r25, r25
    28ea:	66 1f       	adc	r22, r22
    28ec:	77 1f       	adc	r23, r23
    28ee:	88 1f       	adc	r24, r24
    28f0:	06 94       	lsr	r0
    28f2:	a9 f7       	brne	.-22     	; 0x28de <__ftoa_engine+0xc8>
    28f4:	84 91       	lpm	r24, Z+
    28f6:	10 95       	com	r17
    28f8:	17 70       	andi	r17, 0x07	; 7
    28fa:	41 f0       	breq	.+16     	; 0x290c <__ftoa_engine+0xf6>
    28fc:	d6 95       	lsr	r29
    28fe:	c7 95       	ror	r28
    2900:	57 95       	ror	r21
    2902:	47 95       	ror	r20
    2904:	f7 94       	ror	r15
    2906:	e7 94       	ror	r14
    2908:	1a 95       	dec	r17
    290a:	c1 f7       	brne	.-16     	; 0x28fc <__ftoa_engine+0xe6>
    290c:	ec e6       	ldi	r30, 0x6C	; 108
    290e:	f2 e0       	ldi	r31, 0x02	; 2
    2910:	68 94       	set
    2912:	15 90       	lpm	r1, Z+
    2914:	15 91       	lpm	r17, Z+
    2916:	35 91       	lpm	r19, Z+
    2918:	65 91       	lpm	r22, Z+
    291a:	95 91       	lpm	r25, Z+
    291c:	05 90       	lpm	r0, Z+
    291e:	7f e2       	ldi	r23, 0x2F	; 47
    2920:	73 95       	inc	r23
    2922:	e1 18       	sub	r14, r1
    2924:	f1 0a       	sbc	r15, r17
    2926:	43 0b       	sbc	r20, r19
    2928:	56 0b       	sbc	r21, r22
    292a:	c9 0b       	sbc	r28, r25
    292c:	d0 09       	sbc	r29, r0
    292e:	c0 f7       	brcc	.-16     	; 0x2920 <__ftoa_engine+0x10a>
    2930:	e1 0c       	add	r14, r1
    2932:	f1 1e       	adc	r15, r17
    2934:	43 1f       	adc	r20, r19
    2936:	56 1f       	adc	r21, r22
    2938:	c9 1f       	adc	r28, r25
    293a:	d0 1d       	adc	r29, r0
    293c:	7e f4       	brtc	.+30     	; 0x295c <__ftoa_engine+0x146>
    293e:	70 33       	cpi	r23, 0x30	; 48
    2940:	11 f4       	brne	.+4      	; 0x2946 <__ftoa_engine+0x130>
    2942:	8a 95       	dec	r24
    2944:	e6 cf       	rjmp	.-52     	; 0x2912 <__ftoa_engine+0xfc>
    2946:	e8 94       	clt
    2948:	01 50       	subi	r16, 0x01	; 1
    294a:	30 f0       	brcs	.+12     	; 0x2958 <__ftoa_engine+0x142>
    294c:	08 0f       	add	r16, r24
    294e:	0a f4       	brpl	.+2      	; 0x2952 <__ftoa_engine+0x13c>
    2950:	00 27       	eor	r16, r16
    2952:	02 17       	cp	r16, r18
    2954:	08 f4       	brcc	.+2      	; 0x2958 <__ftoa_engine+0x142>
    2956:	20 2f       	mov	r18, r16
    2958:	23 95       	inc	r18
    295a:	02 2f       	mov	r16, r18
    295c:	7a 33       	cpi	r23, 0x3A	; 58
    295e:	28 f0       	brcs	.+10     	; 0x296a <__ftoa_engine+0x154>
    2960:	79 e3       	ldi	r23, 0x39	; 57
    2962:	7d 93       	st	X+, r23
    2964:	2a 95       	dec	r18
    2966:	e9 f7       	brne	.-6      	; 0x2962 <__ftoa_engine+0x14c>
    2968:	10 c0       	rjmp	.+32     	; 0x298a <__ftoa_engine+0x174>
    296a:	7d 93       	st	X+, r23
    296c:	2a 95       	dec	r18
    296e:	89 f6       	brne	.-94     	; 0x2912 <__ftoa_engine+0xfc>
    2970:	06 94       	lsr	r0
    2972:	97 95       	ror	r25
    2974:	67 95       	ror	r22
    2976:	37 95       	ror	r19
    2978:	17 95       	ror	r17
    297a:	17 94       	ror	r1
    297c:	e1 18       	sub	r14, r1
    297e:	f1 0a       	sbc	r15, r17
    2980:	43 0b       	sbc	r20, r19
    2982:	56 0b       	sbc	r21, r22
    2984:	c9 0b       	sbc	r28, r25
    2986:	d0 09       	sbc	r29, r0
    2988:	98 f0       	brcs	.+38     	; 0x29b0 <__ftoa_engine+0x19a>
    298a:	23 95       	inc	r18
    298c:	7e 91       	ld	r23, -X
    298e:	73 95       	inc	r23
    2990:	7a 33       	cpi	r23, 0x3A	; 58
    2992:	08 f0       	brcs	.+2      	; 0x2996 <__ftoa_engine+0x180>
    2994:	70 e3       	ldi	r23, 0x30	; 48
    2996:	7c 93       	st	X, r23
    2998:	20 13       	cpse	r18, r16
    299a:	b8 f7       	brcc	.-18     	; 0x298a <__ftoa_engine+0x174>
    299c:	7e 91       	ld	r23, -X
    299e:	70 61       	ori	r23, 0x10	; 16
    29a0:	7d 93       	st	X+, r23
    29a2:	30 f0       	brcs	.+12     	; 0x29b0 <__ftoa_engine+0x19a>
    29a4:	83 95       	inc	r24
    29a6:	71 e3       	ldi	r23, 0x31	; 49
    29a8:	7d 93       	st	X+, r23
    29aa:	70 e3       	ldi	r23, 0x30	; 48
    29ac:	2a 95       	dec	r18
    29ae:	e1 f7       	brne	.-8      	; 0x29a8 <__ftoa_engine+0x192>
    29b0:	11 24       	eor	r1, r1
    29b2:	ef 90       	pop	r14
    29b4:	ff 90       	pop	r15
    29b6:	0f 91       	pop	r16
    29b8:	1f 91       	pop	r17
    29ba:	cf 91       	pop	r28
    29bc:	df 91       	pop	r29
    29be:	99 27       	eor	r25, r25
    29c0:	87 fd       	sbrc	r24, 7
    29c2:	90 95       	com	r25
    29c4:	08 95       	ret

000029c6 <strrev>:
    29c6:	dc 01       	movw	r26, r24
    29c8:	fc 01       	movw	r30, r24
    29ca:	67 2f       	mov	r22, r23
    29cc:	71 91       	ld	r23, Z+
    29ce:	77 23       	and	r23, r23
    29d0:	e1 f7       	brne	.-8      	; 0x29ca <strrev+0x4>
    29d2:	32 97       	sbiw	r30, 0x02	; 2
    29d4:	04 c0       	rjmp	.+8      	; 0x29de <strrev+0x18>
    29d6:	7c 91       	ld	r23, X
    29d8:	6d 93       	st	X+, r22
    29da:	70 83       	st	Z, r23
    29dc:	62 91       	ld	r22, -Z
    29de:	ae 17       	cp	r26, r30
    29e0:	bf 07       	cpc	r27, r31
    29e2:	c8 f3       	brcs	.-14     	; 0x29d6 <strrev+0x10>
    29e4:	08 95       	ret

000029e6 <_exit>:
    29e6:	f8 94       	cli

000029e8 <__stop_program>:
    29e8:	ff cf       	rjmp	.-2      	; 0x29e8 <__stop_program>
